ARM GAS  C:\Users\ianrd\AppData\Local\Temp\ccpkKoWg.s 			page 1


   1              		.syntax unified
   2              		.cpu cortex-m3
   3              		.fpu softvfp
   4              		.eabi_attribute 20, 1
   5              		.eabi_attribute 21, 1
   6              		.eabi_attribute 23, 3
   7              		.eabi_attribute 24, 1
   8              		.eabi_attribute 25, 1
   9              		.eabi_attribute 26, 1
  10              		.eabi_attribute 30, 1
  11              		.eabi_attribute 34, 1
  12              		.eabi_attribute 18, 4
  13              		.thumb
  14              		.syntax unified
  15              		.file	"can_manga.c"
  16              		.text
  17              	.Ltext0:
  18              		.cfi_sections	.debug_frame
  19              		.section	.text.getCapacitorVoltage,"ax",%progbits
  20              		.align	2
  21              		.global	getCapacitorVoltage
  22              		.thumb
  23              		.thumb_func
  24              		.type	getCapacitorVoltage, %function
  25              	getCapacitorVoltage:
  26              	.LFB63:
  27              		.file 1 "can_manga.c"
   1:can_manga.c   **** /* ========================================
   2:can_manga.c   ****  * Can API for FRUCD
   3:can_manga.c   ****  * Schuyler Alschuler 2016 - 2017
   4:can_manga.c   ****  * ========================================
   5:can_manga.c   **** */
   6:can_manga.c   **** 
   7:can_manga.c   **** /*******************************************
   8:can_manga.c   ****  * Used to interface dashboard with CAN bus
   9:can_manga.c   ****  * some functinality can be found in CAN_TX_RX_func.c
  10:can_manga.c   ****  * which is a generated source file
  11:can_manga.c   ****  * see the can component of the top design for specific mailboxes
  12:can_manga.c   ****  ******************************************/
  13:can_manga.c   **** 
  14:can_manga.c   **** #include "CAN.h"
  15:can_manga.c   **** #include "can_manga.h"
  16:can_manga.c   **** #include "cytypes.h"
  17:can_manga.c   **** //#include "data.h"
  18:can_manga.c   **** 
  19:can_manga.c   **** extern volatile uint32_t pedalOK;
  20:can_manga.c   **** extern volatile double THROTTLE_MULTIPLIER;
  21:can_manga.c   **** extern const double THROTTLE_MAP[8];
  22:can_manga.c   **** extern volatile uint8_t PACK_TEMP;
  23:can_manga.c   **** extern volatile uint8_t BSPD_CATCH;
  24:can_manga.c   **** extern volatile int32 CURRENT;
  25:can_manga.c   **** extern volatile int ERROR_NODE;
  26:can_manga.c   **** extern volatile int ERROR_IDX;
  27:can_manga.c   **** 
  28:can_manga.c   **** volatile uint8_t CAPACITOR_VOLT = 0;
  29:can_manga.c   **** volatile uint8_t CURTIS_FAULT_CHECK = 0;
  30:can_manga.c   **** volatile uint8_t CURTIS_HEART_BEAT_CHECK = 0;
ARM GAS  C:\Users\ianrd\AppData\Local\Temp\ccpkKoWg.s 			page 2


  31:can_manga.c   **** volatile uint8_t ACK_RX = 0;
  32:can_manga.c   **** volatile uint8_t ERROR_TOLERANCE = 0;
  33:can_manga.c   **** volatile uint8_t ABS_MOTOR_RPM = 0;
  34:can_manga.c   **** volatile uint8_t THROTTLE_HIGH = 0;
  35:can_manga.c   **** volatile uint8_t THROTTLE_LOW = 0;
  36:can_manga.c   **** 
  37:can_manga.c   **** volatile uint8_t VOLT_B1;
  38:can_manga.c   **** volatile uint8_t VOLT_B2;
  39:can_manga.c   **** volatile uint8_t VOLT_B3;
  40:can_manga.c   **** volatile uint8_t VOLT_B4;
  41:can_manga.c   **** extern volatile uint32_t voltage;
  42:can_manga.c   **** extern volatile BMS_STATUS bms_status;
  43:can_manga.c   **** 
  44:can_manga.c   **** 
  45:can_manga.c   **** uint8 current_bytes[4] = {0};
  46:can_manga.c   **** 
  47:can_manga.c   **** // returns voltage of capacitor from motor controller
  48:can_manga.c   **** uint8_t getCapacitorVoltage()
  49:can_manga.c   **** {
  28              		.loc 1 49 0
  29              		.cfi_startproc
  30              		@ args = 0, pretend = 0, frame = 0
  31              		@ frame_needed = 0, uses_anonymous_args = 0
  32              		@ link register save eliminated.
  50:can_manga.c   ****     return CAPACITOR_VOLT;
  33              		.loc 1 50 0
  34 0000 014B     		ldr	r3, .L2
  35 0002 1878     		ldrb	r0, [r3]	@ zero_extendqisi2
  51:can_manga.c   **** }
  36              		.loc 1 51 0
  37 0004 7047     		bx	lr
  38              	.L3:
  39 0006 00BF     		.align	2
  40              	.L2:
  41 0008 00000000 		.word	.LANCHOR0
  42              		.cfi_endproc
  43              	.LFE63:
  44              		.size	getCapacitorVoltage, .-getCapacitorVoltage
  45              		.section	.text.getCurtisFaultCheck,"ax",%progbits
  46              		.align	2
  47              		.global	getCurtisFaultCheck
  48              		.thumb
  49              		.thumb_func
  50              		.type	getCurtisFaultCheck, %function
  51              	getCurtisFaultCheck:
  52              	.LFB64:
  52:can_manga.c   **** 
  53:can_manga.c   **** // returns true if there is a fault in motor controller
  54:can_manga.c   **** uint8_t getCurtisFaultCheck()
  55:can_manga.c   **** {
  53              		.loc 1 55 0
  54              		.cfi_startproc
  55              		@ args = 0, pretend = 0, frame = 0
  56              		@ frame_needed = 0, uses_anonymous_args = 0
  57              		@ link register save eliminated.
  56:can_manga.c   ****     return CURTIS_FAULT_CHECK;
  58              		.loc 1 56 0
ARM GAS  C:\Users\ianrd\AppData\Local\Temp\ccpkKoWg.s 			page 3


  59 0000 014B     		ldr	r3, .L5
  60 0002 5878     		ldrb	r0, [r3, #1]	@ zero_extendqisi2
  57:can_manga.c   **** }
  61              		.loc 1 57 0
  62 0004 7047     		bx	lr
  63              	.L6:
  64 0006 00BF     		.align	2
  65              	.L5:
  66 0008 00000000 		.word	.LANCHOR0
  67              		.cfi_endproc
  68              	.LFE64:
  69              		.size	getCurtisFaultCheck, .-getCurtisFaultCheck
  70              		.section	.text.getCurtisHeartBeatCheck,"ax",%progbits
  71              		.align	2
  72              		.global	getCurtisHeartBeatCheck
  73              		.thumb
  74              		.thumb_func
  75              		.type	getCurtisHeartBeatCheck, %function
  76              	getCurtisHeartBeatCheck:
  77              	.LFB65:
  58:can_manga.c   **** 
  59:can_manga.c   **** // returns true if motor controller node is still active
  60:can_manga.c   **** // if node is in active check the fault code using 1314
  61:can_manga.c   **** uint8_t getCurtisHeartBeatCheck()
  62:can_manga.c   **** {
  78              		.loc 1 62 0
  79              		.cfi_startproc
  80              		@ args = 0, pretend = 0, frame = 0
  81              		@ frame_needed = 0, uses_anonymous_args = 0
  82              		@ link register save eliminated.
  63:can_manga.c   ****     return CURTIS_HEART_BEAT_CHECK;
  83              		.loc 1 63 0
  84 0000 014B     		ldr	r3, .L8
  85 0002 9878     		ldrb	r0, [r3, #2]	@ zero_extendqisi2
  64:can_manga.c   **** }
  86              		.loc 1 64 0
  87 0004 7047     		bx	lr
  88              	.L9:
  89 0006 00BF     		.align	2
  90              	.L8:
  91 0008 00000000 		.word	.LANCHOR0
  92              		.cfi_endproc
  93              	.LFE65:
  94              		.size	getCurtisHeartBeatCheck, .-getCurtisHeartBeatCheck
  95              		.section	.text.getAckRx,"ax",%progbits
  96              		.align	2
  97              		.global	getAckRx
  98              		.thumb
  99              		.thumb_func
 100              		.type	getAckRx, %function
 101              	getAckRx:
 102              	.LFB66:
  65:can_manga.c   **** 
  66:can_manga.c   **** // returns 1 always... not sure whats up in the motor controller
  67:can_manga.c   **** uint8_t getAckRx()
  68:can_manga.c   **** {
 103              		.loc 1 68 0
ARM GAS  C:\Users\ianrd\AppData\Local\Temp\ccpkKoWg.s 			page 4


 104              		.cfi_startproc
 105              		@ args = 0, pretend = 0, frame = 0
 106              		@ frame_needed = 0, uses_anonymous_args = 0
 107              		@ link register save eliminated.
  69:can_manga.c   ****     return ACK_RX;
 108              		.loc 1 69 0
 109 0000 014B     		ldr	r3, .L11
 110 0002 D878     		ldrb	r0, [r3, #3]	@ zero_extendqisi2
  70:can_manga.c   **** }
 111              		.loc 1 70 0
 112 0004 7047     		bx	lr
 113              	.L12:
 114 0006 00BF     		.align	2
 115              	.L11:
 116 0008 00000000 		.word	.LANCHOR0
 117              		.cfi_endproc
 118              	.LFE66:
 119              		.size	getAckRx, .-getAckRx
 120              		.section	.text.getErrorTolerance,"ax",%progbits
 121              		.align	2
 122              		.global	getErrorTolerance
 123              		.thumb
 124              		.thumb_func
 125              		.type	getErrorTolerance, %function
 126              	getErrorTolerance:
 127              	.LFB67:
  71:can_manga.c   **** 
  72:can_manga.c   **** // true if break depressed more than 10%
  73:can_manga.c   **** // this value typically used for drive request
  74:can_manga.c   **** uint8_t getErrorTolerance()
  75:can_manga.c   **** {
 128              		.loc 1 75 0
 129              		.cfi_startproc
 130              		@ args = 0, pretend = 0, frame = 0
 131              		@ frame_needed = 0, uses_anonymous_args = 0
 132              		@ link register save eliminated.
  76:can_manga.c   ****     return ERROR_TOLERANCE;
 133              		.loc 1 76 0
 134 0000 014B     		ldr	r3, .L14
 135 0002 1879     		ldrb	r0, [r3, #4]	@ zero_extendqisi2
  77:can_manga.c   **** }
 136              		.loc 1 77 0
 137 0004 7047     		bx	lr
 138              	.L15:
 139 0006 00BF     		.align	2
 140              	.L14:
 141 0008 00000000 		.word	.LANCHOR0
 142              		.cfi_endproc
 143              	.LFE67:
 144              		.size	getErrorTolerance, .-getErrorTolerance
 145              		.section	.text.getABSMotorRPM,"ax",%progbits
 146              		.align	2
 147              		.global	getABSMotorRPM
 148              		.thumb
 149              		.thumb_func
 150              		.type	getABSMotorRPM, %function
 151              	getABSMotorRPM:
ARM GAS  C:\Users\ianrd\AppData\Local\Temp\ccpkKoWg.s 			page 5


 152              	.LFB68:
  78:can_manga.c   **** 
  79:can_manga.c   **** // from motor controller
  80:can_manga.c   **** // look this one up in 1239E manual, im not super sure
  81:can_manga.c   **** uint8_t getABSMotorRPM()
  82:can_manga.c   **** {
 153              		.loc 1 82 0
 154              		.cfi_startproc
 155              		@ args = 0, pretend = 0, frame = 0
 156              		@ frame_needed = 0, uses_anonymous_args = 0
 157              		@ link register save eliminated.
  83:can_manga.c   ****     return ABS_MOTOR_RPM;
 158              		.loc 1 83 0
 159 0000 014B     		ldr	r3, .L17
 160 0002 5879     		ldrb	r0, [r3, #5]	@ zero_extendqisi2
  84:can_manga.c   **** }
 161              		.loc 1 84 0
 162 0004 7047     		bx	lr
 163              	.L18:
 164 0006 00BF     		.align	2
 165              	.L17:
 166 0008 00000000 		.word	.LANCHOR0
 167              		.cfi_endproc
 168              	.LFE68:
 169              		.size	getABSMotorRPM, .-getABSMotorRPM
 170              		.section	.text.getPedalLow,"ax",%progbits
 171              		.align	2
 172              		.global	getPedalLow
 173              		.thumb
 174              		.thumb_func
 175              		.type	getPedalLow, %function
 176              	getPedalLow:
 177              	.LFB69:
  85:can_manga.c   **** 
  86:can_manga.c   **** // throttle is sent in two 8 bit values to create one 16 bit value
  87:can_manga.c   **** // hight and low refer to high and low bit sequences of the whole value
  88:can_manga.c   **** uint8_t getPedalLow()
  89:can_manga.c   **** {
 178              		.loc 1 89 0
 179              		.cfi_startproc
 180              		@ args = 0, pretend = 0, frame = 0
 181              		@ frame_needed = 0, uses_anonymous_args = 0
 182              		@ link register save eliminated.
  90:can_manga.c   ****     return THROTTLE_LOW;
 183              		.loc 1 90 0
 184 0000 014B     		ldr	r3, .L20
 185 0002 9879     		ldrb	r0, [r3, #6]	@ zero_extendqisi2
  91:can_manga.c   **** }
 186              		.loc 1 91 0
 187 0004 7047     		bx	lr
 188              	.L21:
 189 0006 00BF     		.align	2
 190              	.L20:
 191 0008 00000000 		.word	.LANCHOR0
 192              		.cfi_endproc
 193              	.LFE69:
 194              		.size	getPedalLow, .-getPedalLow
ARM GAS  C:\Users\ianrd\AppData\Local\Temp\ccpkKoWg.s 			page 6


 195              		.section	.text.getPedalHigh,"ax",%progbits
 196              		.align	2
 197              		.global	getPedalHigh
 198              		.thumb
 199              		.thumb_func
 200              		.type	getPedalHigh, %function
 201              	getPedalHigh:
 202              	.LFB70:
  92:can_manga.c   **** 
  93:can_manga.c   **** uint8_t getPedalHigh()
  94:can_manga.c   **** {
 203              		.loc 1 94 0
 204              		.cfi_startproc
 205              		@ args = 0, pretend = 0, frame = 0
 206              		@ frame_needed = 0, uses_anonymous_args = 0
 207              		@ link register save eliminated.
  95:can_manga.c   ****     return THROTTLE_HIGH;
 208              		.loc 1 95 0
 209 0000 014B     		ldr	r3, .L23
 210 0002 D879     		ldrb	r0, [r3, #7]	@ zero_extendqisi2
  96:can_manga.c   **** }
 211              		.loc 1 96 0
 212 0004 7047     		bx	lr
 213              	.L24:
 214 0006 00BF     		.align	2
 215              	.L23:
 216 0008 00000000 		.word	.LANCHOR0
 217              		.cfi_endproc
 218              	.LFE70:
 219              		.size	getPedalHigh, .-getPedalHigh
 220              		.section	.text.can_test_send,"ax",%progbits
 221              		.align	2
 222              		.global	can_test_send
 223              		.thumb
 224              		.thumb_func
 225              		.type	can_test_send, %function
 226              	can_test_send:
 227              	.LFB72:
  97:can_manga.c   **** 
  98:can_manga.c   **** // called from CAN_TX_RX_func.c in the generic RX func
  99:can_manga.c   **** // tldr: part of an interrupt service routine
 100:can_manga.c   **** void can_receive(uint8_t *msg, int ID)
 101:can_manga.c   **** {
 102:can_manga.c   ****     uint8 InterruptState = CyEnterCriticalSection();
 103:can_manga.c   ****     
 104:can_manga.c   ****     
 105:can_manga.c   ****     uint8_t data[8];
 106:can_manga.c   ****     int i = 0;
 107:can_manga.c   ****     for (i = 0; i < 8; i++)
 108:can_manga.c   ****         data[i] = msg[i];
 109:can_manga.c   ****         
 110:can_manga.c   ****     switch (ID) 
 111:can_manga.c   ****     {
 112:can_manga.c   ****         case 0x0566: // Curtis Status
 113:can_manga.c   ****             CAPACITOR_VOLT = msg[CAN_DATA_BYTE_1];
 114:can_manga.c   ****             ABS_MOTOR_RPM = msg[CAN_DATA_BYTE_5];
 115:can_manga.c   ****             break;
ARM GAS  C:\Users\ianrd\AppData\Local\Temp\ccpkKoWg.s 			page 7


 116:can_manga.c   ****         case 0xA6:  // errors sent from MC node
 117:can_manga.c   ****             CURTIS_FAULT_CHECK = 0x1;
 118:can_manga.c   ****             break;
 119:can_manga.c   ****         case 0x726:     // from motor controller to confirm that node is still active
 120:can_manga.c   ****             CURTIS_HEART_BEAT_CHECK = 0x1;
 121:can_manga.c   ****             break;
 122:can_manga.c   ****         case 0x0666:    // pdoAwk from motor controller
 123:can_manga.c   ****             ACK_RX = msg[CAN_DATA_BYTE_1];
 124:can_manga.c   ****             break;
 125:can_manga.c   ****         case 0x0201:    // BSPD (brake position from pedal node)
 126:can_manga.c   ****             ERROR_TOLERANCE = msg[CAN_DATA_BYTE_1];
 127:can_manga.c   ****             BSPD_CATCH = msg[CAN_DATA_BYTE_5]; //recieved from buffer[4] in 0x201
 128:can_manga.c   ****             break;
 129:can_manga.c   ****         case 0x0200:    // throttle
 130:can_manga.c   ****             pedalOK = 0x0;
 131:can_manga.c   ****             THROTTLE_HIGH = data[CAN_DATA_BYTE_2];
 132:can_manga.c   ****             THROTTLE_LOW = data[CAN_DATA_BYTE_3];
 133:can_manga.c   ****             break;
 134:can_manga.c   ****         case 0x388:    // BMS voltage data 
 135:can_manga.c   ****             VOLT_B4 = data[CAN_DATA_BYTE_5];
 136:can_manga.c   ****             VOLT_B3 = data[CAN_DATA_BYTE_6];
 137:can_manga.c   ****             VOLT_B2 = data[CAN_DATA_BYTE_7];
 138:can_manga.c   ****             VOLT_B1 = data[CAN_DATA_BYTE_8];
 139:can_manga.c   ****             voltage = (VOLT_B4 << 24) | (VOLT_B3 << 16) | (VOLT_B2 << 8) | VOLT_B1; 
 140:can_manga.c   ****             break;
 141:can_manga.c   ****         case 0x0488:   // BMS Temp data
 142:can_manga.c   ****             ERROR_IDX = data[CAN_DATA_BYTE_6];
 143:can_manga.c   ****             ERROR_NODE = data[CAN_DATA_BYTE_7];
 144:can_manga.c   ****             PACK_TEMP = data[CAN_DATA_BYTE_8];
 145:can_manga.c   ****             tempAttenuate();
 146:can_manga.c   ****             break;
 147:can_manga.c   ****         case 0x521: // current data from IVT
 148:can_manga.c   ****             current_bytes[0] = data[CAN_DATA_BYTE_3];
 149:can_manga.c   ****             current_bytes[1] = data[CAN_DATA_BYTE_4];
 150:can_manga.c   ****             current_bytes[2] = data[CAN_DATA_BYTE_5];
 151:can_manga.c   ****             current_bytes[3] = data[CAN_DATA_BYTE_6];
 152:can_manga.c   ****             CURRENT = (current_bytes[0] << 24) + (current_bytes[1] << 16) + (current_bytes[2] << 8)
 153:can_manga.c   ****             break;
 154:can_manga.c   ****         case 0x188:
 155:can_manga.c   ****             bms_status = (data[CAN_DATA_BYTE_3] << 8) | data[CAN_DATA_BYTE_4];  
 156:can_manga.c   ****             break;
 157:can_manga.c   ****     }
 158:can_manga.c   ****     
 159:can_manga.c   ****     CyExitCriticalSection(InterruptState);
 160:can_manga.c   **** }
 161:can_manga.c   **** 
 162:can_manga.c   **** void can_test_send()
 163:can_manga.c   **** {
 228              		.loc 1 163 0
 229              		.cfi_startproc
 230              		@ args = 0, pretend = 0, frame = 16
 231              		@ frame_needed = 0, uses_anonymous_args = 0
 232 0000 00B5     		push	{lr}
 233              		.cfi_def_cfa_offset 4
 234              		.cfi_offset 14, -4
 235 0002 85B0     		sub	sp, sp, #20
 236              		.cfi_def_cfa_offset 24
ARM GAS  C:\Users\ianrd\AppData\Local\Temp\ccpkKoWg.s 			page 8


 164:can_manga.c   ****     //CAN_1_DATA_BYTES_MSG msg;
 165:can_manga.c   ****     CAN_TX_MSG HeartB;
 166:can_manga.c   ****     
 167:can_manga.c   ****     HeartB.id = 0x300;
 237              		.loc 1 167 0
 238 0004 4FF44073 		mov	r3, #768
 239 0008 0193     		str	r3, [sp, #4]
 168:can_manga.c   ****     HeartB.rtr = 0;
 240              		.loc 1 168 0
 241 000a 0022     		movs	r2, #0
 242 000c 8DF80820 		strb	r2, [sp, #8]
 169:can_manga.c   ****     HeartB.ide = 0;
 243              		.loc 1 169 0
 244 0010 8DF80920 		strb	r2, [sp, #9]
 170:can_manga.c   ****     HeartB.dlc = 1;
 245              		.loc 1 170 0
 246 0014 0123     		movs	r3, #1
 247 0016 8DF80A30 		strb	r3, [sp, #10]
 171:can_manga.c   ****     
 172:can_manga.c   ****     HeartB.irq = 0;
 248              		.loc 1 172 0
 249 001a 8DF80B20 		strb	r2, [sp, #11]
 173:can_manga.c   ****     
 174:can_manga.c   ****     HeartB.msg->byte[0] = (uint8) 1;
 250              		.loc 1 174 0
 251 001e 039A     		ldr	r2, [sp, #12]
 252 0020 1370     		strb	r3, [r2]
 175:can_manga.c   ****     HeartB.msg->byte[1] = (uint8) 1;
 253              		.loc 1 175 0
 254 0022 039A     		ldr	r2, [sp, #12]
 255 0024 5370     		strb	r3, [r2, #1]
 176:can_manga.c   ****     HeartB.msg->byte[2] = (uint8) 1;
 256              		.loc 1 176 0
 257 0026 039A     		ldr	r2, [sp, #12]
 258 0028 9370     		strb	r3, [r2, #2]
 177:can_manga.c   ****     HeartB.msg->byte[3] = (uint8) 1;
 259              		.loc 1 177 0
 260 002a 039A     		ldr	r2, [sp, #12]
 261 002c D370     		strb	r3, [r2, #3]
 178:can_manga.c   ****     HeartB.msg->byte[4] = (uint8) 1;
 262              		.loc 1 178 0
 263 002e 039A     		ldr	r2, [sp, #12]
 264 0030 1371     		strb	r3, [r2, #4]
 179:can_manga.c   ****     HeartB.msg->byte[5] = (uint8) 1;
 265              		.loc 1 179 0
 266 0032 039A     		ldr	r2, [sp, #12]
 267 0034 5371     		strb	r3, [r2, #5]
 180:can_manga.c   ****     HeartB.msg->byte[6] = (uint8) 1;
 268              		.loc 1 180 0
 269 0036 039A     		ldr	r2, [sp, #12]
 270 0038 9371     		strb	r3, [r2, #6]
 181:can_manga.c   ****     HeartB.msg->byte[7] = (uint8) 1;
 271              		.loc 1 181 0
 272 003a 039A     		ldr	r2, [sp, #12]
 273 003c D371     		strb	r3, [r2, #7]
 182:can_manga.c   ****     
 183:can_manga.c   ****     CAN_SendMsg(&HeartB);
ARM GAS  C:\Users\ianrd\AppData\Local\Temp\ccpkKoWg.s 			page 9


 274              		.loc 1 183 0
 275 003e 01A8     		add	r0, sp, #4
 276 0040 FFF7FEFF 		bl	CAN_SendMsg
 277              	.LVL0:
 184:can_manga.c   **** }
 278              		.loc 1 184 0
 279 0044 05B0     		add	sp, sp, #20
 280              		.cfi_def_cfa_offset 4
 281              		@ sp needed
 282 0046 5DF804FB 		ldr	pc, [sp], #4
 283              		.cfi_endproc
 284              	.LFE72:
 285              		.size	can_test_send, .-can_test_send
 286 004a 00BF     		.section	.text.can_send,"ax",%progbits
 287              		.align	2
 288              		.global	can_send
 289              		.thumb
 290              		.thumb_func
 291              		.type	can_send, %function
 292              	can_send:
 293              	.LFB73:
 185:can_manga.c   **** 
 186:can_manga.c   **** void can_send(uint8_t data[8], uint32_t ID)
 187:can_manga.c   **** {
 294              		.loc 1 187 0
 295              		.cfi_startproc
 296              		@ args = 0, pretend = 0, frame = 24
 297              		@ frame_needed = 0, uses_anonymous_args = 0
 298              	.LVL1:
 299 0000 00B5     		push	{lr}
 300              		.cfi_def_cfa_offset 4
 301              		.cfi_offset 14, -4
 302 0002 87B0     		sub	sp, sp, #28
 303              		.cfi_def_cfa_offset 32
 188:can_manga.c   ****     uint8_t i;
 189:can_manga.c   **** 	CAN_TX_MSG message;
 190:can_manga.c   **** 	CAN_DATA_BYTES_MSG payload;
 191:can_manga.c   **** 	message.id = ID; 
 304              		.loc 1 191 0
 305 0004 0391     		str	r1, [sp, #12]
 192:can_manga.c   **** 	message.rtr = 0;
 306              		.loc 1 192 0
 307 0006 0023     		movs	r3, #0
 308 0008 8DF81030 		strb	r3, [sp, #16]
 193:can_manga.c   **** 	message.ide = 0;
 309              		.loc 1 193 0
 310 000c 8DF81130 		strb	r3, [sp, #17]
 194:can_manga.c   **** 	message.dlc = 0x08;
 311              		.loc 1 194 0
 312 0010 0822     		movs	r2, #8
 313 0012 8DF81220 		strb	r2, [sp, #18]
 195:can_manga.c   **** 	message.irq = 0;
 314              		.loc 1 195 0
 315 0016 8DF81330 		strb	r3, [sp, #19]
 196:can_manga.c   **** 	message.msg = &payload;
 316              		.loc 1 196 0
 317 001a 01AA     		add	r2, sp, #4
ARM GAS  C:\Users\ianrd\AppData\Local\Temp\ccpkKoWg.s 			page 10


 318 001c 0592     		str	r2, [sp, #20]
 319              	.LVL2:
 197:can_manga.c   **** 	for(i=0;i<8;i++)
 320              		.loc 1 197 0
 321 001e 06E0     		b	.L28
 322              	.LVL3:
 323              	.L29:
 198:can_manga.c   **** 		payload.byte[i] = data[i];
 324              		.loc 1 198 0 discriminator 3
 325 0020 C15C     		ldrb	r1, [r0, r3]	@ zero_extendqisi2
 326 0022 06AA     		add	r2, sp, #24
 327 0024 1A44     		add	r2, r2, r3
 328 0026 02F8141C 		strb	r1, [r2, #-20]
 197:can_manga.c   **** 	for(i=0;i<8;i++)
 329              		.loc 1 197 0 discriminator 3
 330 002a 0133     		adds	r3, r3, #1
 331              	.LVL4:
 332 002c DBB2     		uxtb	r3, r3
 333              	.LVL5:
 334              	.L28:
 197:can_manga.c   **** 	for(i=0;i<8;i++)
 335              		.loc 1 197 0 is_stmt 0 discriminator 1
 336 002e 072B     		cmp	r3, #7
 337 0030 F6D9     		bls	.L29
 199:can_manga.c   **** 	CAN_SendMsg(&message); 
 338              		.loc 1 199 0 is_stmt 1
 339 0032 03A8     		add	r0, sp, #12
 340              	.LVL6:
 341 0034 FFF7FEFF 		bl	CAN_SendMsg
 342              	.LVL7:
 200:can_manga.c   **** }
 343              		.loc 1 200 0
 344 0038 07B0     		add	sp, sp, #28
 345              		.cfi_def_cfa_offset 4
 346              		@ sp needed
 347 003a 5DF804FB 		ldr	pc, [sp], #4
 348              		.cfi_endproc
 349              	.LFE73:
 350              		.size	can_send, .-can_send
 351 003e 00BF     		.section	.text.can_send_status,"ax",%progbits
 352              		.align	2
 353              		.global	can_send_status
 354              		.thumb
 355              		.thumb_func
 356              		.type	can_send_status, %function
 357              	can_send_status:
 358              	.LFB74:
 201:can_manga.c   **** 
 202:can_manga.c   **** void can_send_status(
 203:can_manga.c   ****     uint8_t state,
 204:can_manga.c   ****     uint8_t errorState)
 205:can_manga.c   **** {
 359              		.loc 1 205 0
 360              		.cfi_startproc
 361              		@ args = 0, pretend = 0, frame = 8
 362              		@ frame_needed = 0, uses_anonymous_args = 0
 363              	.LVL8:
ARM GAS  C:\Users\ianrd\AppData\Local\Temp\ccpkKoWg.s 			page 11


 364 0000 00B5     		push	{lr}
 365              		.cfi_def_cfa_offset 4
 366              		.cfi_offset 14, -4
 367 0002 83B0     		sub	sp, sp, #12
 368              		.cfi_def_cfa_offset 16
 206:can_manga.c   ****     //max and min voltage means the voltage of single cell
 207:can_manga.c   ****         uint8_t data[8];
 208:can_manga.c   ****         
 209:can_manga.c   ****         data[0] = state;
 369              		.loc 1 209 0
 370 0004 8DF80000 		strb	r0, [sp]
 210:can_manga.c   ****         data[1] = errorState;
 371              		.loc 1 210 0
 372 0008 8DF80110 		strb	r1, [sp, #1]
 211:can_manga.c   ****         
 212:can_manga.c   ****         data[2] = 0;
 373              		.loc 1 212 0
 374 000c 0023     		movs	r3, #0
 375 000e 8DF80230 		strb	r3, [sp, #2]
 213:can_manga.c   ****         data[3] = 0;
 376              		.loc 1 213 0
 377 0012 8DF80330 		strb	r3, [sp, #3]
 214:can_manga.c   ****         
 215:can_manga.c   ****         data[4] = 0;
 378              		.loc 1 215 0
 379 0016 8DF80430 		strb	r3, [sp, #4]
 216:can_manga.c   ****         data[5] = 0;
 380              		.loc 1 216 0
 381 001a 8DF80530 		strb	r3, [sp, #5]
 217:can_manga.c   ****         data[6] = 0;
 382              		.loc 1 217 0
 383 001e 8DF80630 		strb	r3, [sp, #6]
 218:can_manga.c   ****         data[7] = 0;
 384              		.loc 1 218 0
 385 0022 8DF80730 		strb	r3, [sp, #7]
 219:can_manga.c   **** 
 220:can_manga.c   ****         can_send(data, 0x626);
 386              		.loc 1 220 0
 387 0026 40F22661 		movw	r1, #1574
 388              	.LVL9:
 389 002a 6846     		mov	r0, sp
 390              	.LVL10:
 391 002c FFF7FEFF 		bl	can_send
 392              	.LVL11:
 221:can_manga.c   **** 
 222:can_manga.c   ****         
 223:can_manga.c   **** } // can_send_status()
 393              		.loc 1 223 0
 394 0030 03B0     		add	sp, sp, #12
 395              		.cfi_def_cfa_offset 4
 396              		@ sp needed
 397 0032 5DF804FB 		ldr	pc, [sp], #4
 398              		.cfi_endproc
 399              	.LFE74:
 400              		.size	can_send_status, .-can_send_status
 401 0036 00BF     		.section	.text.can_send_cmd,"ax",%progbits
 402              		.align	2
ARM GAS  C:\Users\ianrd\AppData\Local\Temp\ccpkKoWg.s 			page 12


 403              		.global	can_send_cmd
 404              		.thumb
 405              		.thumb_func
 406              		.type	can_send_cmd, %function
 407              	can_send_cmd:
 408              	.LFB75:
 224:can_manga.c   **** 
 225:can_manga.c   **** void can_send_cmd(
 226:can_manga.c   ****     uint8_t SetInterlock,
 227:can_manga.c   ****     uint16_t VCL_Throttle_High,
 228:can_manga.c   ****     uint16_t VCL_Throttle_Low
 229:can_manga.c   **** )
 230:can_manga.c   **** {
 409              		.loc 1 230 0
 410              		.cfi_startproc
 411              		@ args = 0, pretend = 0, frame = 8
 412              		@ frame_needed = 0, uses_anonymous_args = 0
 413              	.LVL12:
 414 0000 00B5     		push	{lr}
 415              		.cfi_def_cfa_offset 4
 416              		.cfi_offset 14, -4
 417 0002 83B0     		sub	sp, sp, #12
 418              		.cfi_def_cfa_offset 16
 231:can_manga.c   ****     //max and min voltage means the voltage of single cell
 232:can_manga.c   ****         
 233:can_manga.c   ****         uint8_t data[8];
 234:can_manga.c   ****         
 235:can_manga.c   ****         data[0] = SetInterlock;
 419              		.loc 1 235 0
 420 0004 8DF80000 		strb	r0, [sp]
 236:can_manga.c   ****         
 237:can_manga.c   ****         data[1] = VCL_Throttle_High;
 421              		.loc 1 237 0
 422 0008 8DF80110 		strb	r1, [sp, #1]
 238:can_manga.c   ****         data[2] = VCL_Throttle_Low;
 423              		.loc 1 238 0
 424 000c 8DF80220 		strb	r2, [sp, #2]
 239:can_manga.c   ****         
 240:can_manga.c   ****         data[3] = 0;
 425              		.loc 1 240 0
 426 0010 0023     		movs	r3, #0
 427 0012 8DF80330 		strb	r3, [sp, #3]
 241:can_manga.c   ****         data[4] = 0;
 428              		.loc 1 241 0
 429 0016 8DF80430 		strb	r3, [sp, #4]
 242:can_manga.c   ****         
 243:can_manga.c   ****         data[5] = 0;
 430              		.loc 1 243 0
 431 001a 8DF80530 		strb	r3, [sp, #5]
 244:can_manga.c   ****         data[6] = 0;
 432              		.loc 1 244 0
 433 001e 8DF80630 		strb	r3, [sp, #6]
 245:can_manga.c   ****         data[7] = 0;
 434              		.loc 1 245 0
 435 0022 8DF80730 		strb	r3, [sp, #7]
 246:can_manga.c   **** 
 247:can_manga.c   ****         can_send(data, 0x766);
ARM GAS  C:\Users\ianrd\AppData\Local\Temp\ccpkKoWg.s 			page 13


 436              		.loc 1 247 0
 437 0026 40F26671 		movw	r1, #1894
 438              	.LVL13:
 439 002a 6846     		mov	r0, sp
 440              	.LVL14:
 441 002c FFF7FEFF 		bl	can_send
 442              	.LVL15:
 248:can_manga.c   ****         CyDelay(1); // Wtf is this shit?
 443              		.loc 1 248 0
 444 0030 0120     		movs	r0, #1
 445 0032 FFF7FEFF 		bl	CyDelay
 446              	.LVL16:
 249:can_manga.c   **** 
 250:can_manga.c   **** } // can_send_cmd()
 447              		.loc 1 250 0
 448 0036 03B0     		add	sp, sp, #12
 449              		.cfi_def_cfa_offset 4
 450              		@ sp needed
 451 0038 5DF804FB 		ldr	pc, [sp], #4
 452              		.cfi_endproc
 453              	.LFE75:
 454              		.size	can_send_cmd, .-can_send_cmd
 455              		.section	.text.can_send_charge,"ax",%progbits
 456              		.align	2
 457              		.global	can_send_charge
 458              		.thumb
 459              		.thumb_func
 460              		.type	can_send_charge, %function
 461              	can_send_charge:
 462              	.LFB76:
 251:can_manga.c   **** 
 252:can_manga.c   **** void can_send_charge(uint8_t charge, uint8_t save_soc) {
 463              		.loc 1 252 0
 464              		.cfi_startproc
 465              		@ args = 0, pretend = 0, frame = 8
 466              		@ frame_needed = 0, uses_anonymous_args = 0
 467              	.LVL17:
 468 0000 00B5     		push	{lr}
 469              		.cfi_def_cfa_offset 4
 470              		.cfi_offset 14, -4
 471 0002 83B0     		sub	sp, sp, #12
 472              		.cfi_def_cfa_offset 16
 253:can_manga.c   ****     uint8_t data[8] = {0};
 473              		.loc 1 253 0
 474 0004 0023     		movs	r3, #0
 475 0006 0093     		str	r3, [sp]
 476 0008 0193     		str	r3, [sp, #4]
 254:can_manga.c   ****     data[0] = charge;
 477              		.loc 1 254 0
 478 000a 8DF80000 		strb	r0, [sp]
 255:can_manga.c   ****     data[1] = save_soc;
 479              		.loc 1 255 0
 480 000e 8DF80110 		strb	r1, [sp, #1]
 256:can_manga.c   ****     
 257:can_manga.c   ****     can_send(data, 0x389);
 481              		.loc 1 257 0
 482 0012 40F28931 		movw	r1, #905
ARM GAS  C:\Users\ianrd\AppData\Local\Temp\ccpkKoWg.s 			page 14


 483              	.LVL18:
 484 0016 6846     		mov	r0, sp
 485              	.LVL19:
 486 0018 FFF7FEFF 		bl	can_send
 487              	.LVL20:
 258:can_manga.c   **** }
 488              		.loc 1 258 0
 489 001c 03B0     		add	sp, sp, #12
 490              		.cfi_def_cfa_offset 4
 491              		@ sp needed
 492 001e 5DF804FB 		ldr	pc, [sp], #4
 493              		.cfi_endproc
 494              	.LFE76:
 495              		.size	can_send_charge, .-can_send_charge
 496              		.global	__aeabi_ddiv
 497 0022 00BF     		.section	.text.tempAttenuate,"ax",%progbits
 498              		.align	2
 499              		.global	tempAttenuate
 500              		.thumb
 501              		.thumb_func
 502              		.type	tempAttenuate, %function
 503              	tempAttenuate:
 504              	.LFB77:
 259:can_manga.c   **** 
 260:can_manga.c   **** void tempAttenuate() {
 505              		.loc 1 260 0
 506              		.cfi_startproc
 507              		@ args = 0, pretend = 0, frame = 0
 508              		@ frame_needed = 0, uses_anonymous_args = 0
 509 0000 08B5     		push	{r3, lr}
 510              		.cfi_def_cfa_offset 8
 511              		.cfi_offset 3, -8
 512              		.cfi_offset 14, -4
 261:can_manga.c   ****     int t = PACK_TEMP - 50;
 513              		.loc 1 261 0
 514 0002 134B     		ldr	r3, .L42
 515 0004 1B78     		ldrb	r3, [r3]	@ zero_extendqisi2
 516              	.LVL21:
 262:can_manga.c   ****     if (t < 0) {
 517              		.loc 1 262 0
 518 0006 323B     		subs	r3, r3, #50
 519              	.LVL22:
 520 0008 05D5     		bpl	.L38
 263:can_manga.c   ****         THROTTLE_MULTIPLIER = 1;   
 521              		.loc 1 263 0
 522 000a 0020     		movs	r0, #0
 523 000c 1149     		ldr	r1, .L42+4
 524 000e 124B     		ldr	r3, .L42+8
 525              	.LVL23:
 526 0010 C3E90001 		strd	r0, [r3]
 527 0014 08BD     		pop	{r3, pc}
 528              	.LVL24:
 529              	.L38:
 264:can_manga.c   ****     } else if (t < 8) {
 530              		.loc 1 264 0
 531 0016 072B     		cmp	r3, #7
 532 0018 0CDC     		bgt	.L40
ARM GAS  C:\Users\ianrd\AppData\Local\Temp\ccpkKoWg.s 			page 15


 265:can_manga.c   ****         THROTTLE_MULTIPLIER = THROTTLE_MAP[t] / 100.0; 
 533              		.loc 1 265 0
 534 001a 1049     		ldr	r1, .L42+12
 535 001c 01EBC301 		add	r1, r1, r3, lsl #3
 536 0020 0022     		movs	r2, #0
 537 0022 0F4B     		ldr	r3, .L42+16
 538              	.LVL25:
 539 0024 D1E90001 		ldrd	r0, [r1]
 540 0028 FFF7FEFF 		bl	__aeabi_ddiv
 541              	.LVL26:
 542 002c 0A4B     		ldr	r3, .L42+8
 543 002e C3E90001 		strd	r0, [r3]
 544 0032 08BD     		pop	{r3, pc}
 545              	.LVL27:
 546              	.L40:
 266:can_manga.c   ****     } else if (t >= 8) {
 547              		.loc 1 266 0
 548 0034 072B     		cmp	r3, #7
 549 0036 09DD     		ble	.L37
 267:can_manga.c   ****         THROTTLE_MULTIPLIER = THROTTLE_MAP[7] / 100.0; 
 550              		.loc 1 267 0
 551 0038 0022     		movs	r2, #0
 552 003a 094B     		ldr	r3, .L42+16
 553              	.LVL28:
 554 003c 0749     		ldr	r1, .L42+12
 555 003e D1E90E01 		ldrd	r0, [r1, #56]
 556 0042 FFF7FEFF 		bl	__aeabi_ddiv
 557              	.LVL29:
 558 0046 044B     		ldr	r3, .L42+8
 559 0048 C3E90001 		strd	r0, [r3]
 560              	.L37:
 561 004c 08BD     		pop	{r3, pc}
 562              	.L43:
 563 004e 00BF     		.align	2
 564              	.L42:
 565 0050 00000000 		.word	PACK_TEMP
 566 0054 0000F03F 		.word	1072693248
 567 0058 00000000 		.word	THROTTLE_MULTIPLIER
 568 005c 00000000 		.word	THROTTLE_MAP
 569 0060 00005940 		.word	1079574528
 570              		.cfi_endproc
 571              	.LFE77:
 572              		.size	tempAttenuate, .-tempAttenuate
 573              		.section	.text.can_receive,"ax",%progbits
 574              		.align	2
 575              		.global	can_receive
 576              		.thumb
 577              		.thumb_func
 578              		.type	can_receive, %function
 579              	can_receive:
 580              	.LFB71:
 101:can_manga.c   ****     uint8 InterruptState = CyEnterCriticalSection();
 581              		.loc 1 101 0
 582              		.cfi_startproc
 583              		@ args = 0, pretend = 0, frame = 8
 584              		@ frame_needed = 0, uses_anonymous_args = 0
 585              	.LVL30:
ARM GAS  C:\Users\ianrd\AppData\Local\Temp\ccpkKoWg.s 			page 16


 586 0000 70B5     		push	{r4, r5, r6, lr}
 587              		.cfi_def_cfa_offset 16
 588              		.cfi_offset 4, -16
 589              		.cfi_offset 5, -12
 590              		.cfi_offset 6, -8
 591              		.cfi_offset 14, -4
 592 0002 82B0     		sub	sp, sp, #8
 593              		.cfi_def_cfa_offset 24
 594 0004 0446     		mov	r4, r0
 595 0006 0D46     		mov	r5, r1
 102:can_manga.c   ****     
 596              		.loc 1 102 0
 597 0008 FFF7FEFF 		bl	CyEnterCriticalSection
 598              	.LVL31:
 599 000c 0646     		mov	r6, r0
 600              	.LVL32:
 107:can_manga.c   ****         data[i] = msg[i];
 601              		.loc 1 107 0
 602 000e 0023     		movs	r3, #0
 603 0010 05E0     		b	.L45
 604              	.LVL33:
 605              	.L46:
 108:can_manga.c   ****         
 606              		.loc 1 108 0 discriminator 3
 607 0012 E15C     		ldrb	r1, [r4, r3]	@ zero_extendqisi2
 608 0014 02AA     		add	r2, sp, #8
 609 0016 1A44     		add	r2, r2, r3
 610 0018 02F8081C 		strb	r1, [r2, #-8]
 107:can_manga.c   ****         data[i] = msg[i];
 611              		.loc 1 107 0 discriminator 3
 612 001c 0133     		adds	r3, r3, #1
 613              	.LVL34:
 614              	.L45:
 107:can_manga.c   ****         data[i] = msg[i];
 615              		.loc 1 107 0 is_stmt 0 discriminator 1
 616 001e 072B     		cmp	r3, #7
 617 0020 F7DD     		ble	.L46
 110:can_manga.c   ****     {
 618              		.loc 1 110 0 is_stmt 1
 619 0022 B5F5627F 		cmp	r5, #904
 620 0026 4AD0     		beq	.L48
 621 0028 0FDC     		bgt	.L49
 622 002a B5F5C47F 		cmp	r5, #392
 623 002e 00F08880 		beq	.L50
 624 0032 02DC     		bgt	.L51
 625 0034 A62D     		cmp	r5, #166
 626 0036 24D0     		beq	.L52
 627 0038 8BE0     		b	.L47
 628              	.L51:
 629 003a B5F5007F 		cmp	r5, #512
 630 003e 33D0     		beq	.L53
 631 0040 40F20123 		movw	r3, #513
 632              	.LVL35:
 633 0044 9D42     		cmp	r5, r3
 634 0046 28D0     		beq	.L54
 635 0048 83E0     		b	.L47
 636              	.LVL36:
ARM GAS  C:\Users\ianrd\AppData\Local\Temp\ccpkKoWg.s 			page 17


 637              	.L49:
 638 004a 40F26653 		movw	r3, #1382
 639              	.LVL37:
 640 004e 9D42     		cmp	r5, r3
 641 0050 11D0     		beq	.L55
 642 0052 07DC     		bgt	.L56
 643 0054 B5F5916F 		cmp	r5, #1160
 644 0058 4ED0     		beq	.L57
 645 005a 40F22153 		movw	r3, #1313
 646 005e 9D42     		cmp	r5, r3
 647 0060 59D0     		beq	.L58
 648 0062 76E0     		b	.L47
 649              	.L56:
 650 0064 40F26663 		movw	r3, #1638
 651 0068 9D42     		cmp	r5, r3
 652 006a 12D0     		beq	.L59
 653 006c 40F22673 		movw	r3, #1830
 654 0070 9D42     		cmp	r5, r3
 655 0072 0AD0     		beq	.L60
 656 0074 6DE0     		b	.L47
 657              	.L55:
 113:can_manga.c   ****             ABS_MOTOR_RPM = msg[CAN_DATA_BYTE_5];
 658              		.loc 1 113 0
 659 0076 E278     		ldrb	r2, [r4, #3]	@ zero_extendqisi2
 660 0078 384B     		ldr	r3, .L62
 661 007a 1A70     		strb	r2, [r3]
 114:can_manga.c   ****             break;
 662              		.loc 1 114 0
 663 007c E279     		ldrb	r2, [r4, #7]	@ zero_extendqisi2
 664 007e 5A71     		strb	r2, [r3, #5]
 115:can_manga.c   ****         case 0xA6:  // errors sent from MC node
 665              		.loc 1 115 0
 666 0080 67E0     		b	.L47
 667              	.LVL38:
 668              	.L52:
 117:can_manga.c   ****             break;
 669              		.loc 1 117 0
 670 0082 0122     		movs	r2, #1
 671 0084 354B     		ldr	r3, .L62
 672              	.LVL39:
 673 0086 5A70     		strb	r2, [r3, #1]
 118:can_manga.c   ****         case 0x726:     // from motor controller to confirm that node is still active
 674              		.loc 1 118 0
 675 0088 63E0     		b	.L47
 676              	.L60:
 120:can_manga.c   ****             break;
 677              		.loc 1 120 0
 678 008a 0122     		movs	r2, #1
 679 008c 334B     		ldr	r3, .L62
 680 008e 9A70     		strb	r2, [r3, #2]
 121:can_manga.c   ****         case 0x0666:    // pdoAwk from motor controller
 681              		.loc 1 121 0
 682 0090 5FE0     		b	.L47
 683              	.L59:
 123:can_manga.c   ****             break;
 684              		.loc 1 123 0
 685 0092 E278     		ldrb	r2, [r4, #3]	@ zero_extendqisi2
ARM GAS  C:\Users\ianrd\AppData\Local\Temp\ccpkKoWg.s 			page 18


 686 0094 314B     		ldr	r3, .L62
 687 0096 DA70     		strb	r2, [r3, #3]
 124:can_manga.c   ****         case 0x0201:    // BSPD (brake position from pedal node)
 688              		.loc 1 124 0
 689 0098 5BE0     		b	.L47
 690              	.L54:
 126:can_manga.c   ****             BSPD_CATCH = msg[CAN_DATA_BYTE_5]; //recieved from buffer[4] in 0x201
 691              		.loc 1 126 0
 692 009a E278     		ldrb	r2, [r4, #3]	@ zero_extendqisi2
 693 009c 2F4B     		ldr	r3, .L62
 694 009e 1A71     		strb	r2, [r3, #4]
 127:can_manga.c   ****             break;
 695              		.loc 1 127 0
 696 00a0 E279     		ldrb	r2, [r4, #7]	@ zero_extendqisi2
 697 00a2 2F4B     		ldr	r3, .L62+4
 698 00a4 1A70     		strb	r2, [r3]
 128:can_manga.c   ****         case 0x0200:    // throttle
 699              		.loc 1 128 0
 700 00a6 54E0     		b	.L47
 701              	.LVL40:
 702              	.L53:
 130:can_manga.c   ****             THROTTLE_HIGH = data[CAN_DATA_BYTE_2];
 703              		.loc 1 130 0
 704 00a8 0022     		movs	r2, #0
 705 00aa 2E4B     		ldr	r3, .L62+8
 706              	.LVL41:
 707 00ac 1A60     		str	r2, [r3]
 131:can_manga.c   ****             THROTTLE_LOW = data[CAN_DATA_BYTE_3];
 708              		.loc 1 131 0
 709 00ae 9DF80220 		ldrb	r2, [sp, #2]	@ zero_extendqisi2
 710 00b2 2A4B     		ldr	r3, .L62
 711 00b4 DA71     		strb	r2, [r3, #7]
 132:can_manga.c   ****             break;
 712              		.loc 1 132 0
 713 00b6 9DF80120 		ldrb	r2, [sp, #1]	@ zero_extendqisi2
 714 00ba 9A71     		strb	r2, [r3, #6]
 133:can_manga.c   ****         case 0x388:    // BMS voltage data 
 715              		.loc 1 133 0
 716 00bc 49E0     		b	.L47
 717              	.LVL42:
 718              	.L48:
 135:can_manga.c   ****             VOLT_B3 = data[CAN_DATA_BYTE_6];
 719              		.loc 1 135 0
 720 00be 9DF80720 		ldrb	r2, [sp, #7]	@ zero_extendqisi2
 721 00c2 294B     		ldr	r3, .L62+12
 722              	.LVL43:
 723 00c4 1A70     		strb	r2, [r3]
 136:can_manga.c   ****             VOLT_B2 = data[CAN_DATA_BYTE_7];
 724              		.loc 1 136 0
 725 00c6 9DF80620 		ldrb	r2, [sp, #6]	@ zero_extendqisi2
 726 00ca 2848     		ldr	r0, .L62+16
 727 00cc 0270     		strb	r2, [r0]
 137:can_manga.c   ****             VOLT_B1 = data[CAN_DATA_BYTE_8];
 728              		.loc 1 137 0
 729 00ce 9DF80520 		ldrb	r2, [sp, #5]	@ zero_extendqisi2
 730 00d2 2749     		ldr	r1, .L62+20
 731 00d4 0A70     		strb	r2, [r1]
ARM GAS  C:\Users\ianrd\AppData\Local\Temp\ccpkKoWg.s 			page 19


 138:can_manga.c   ****             voltage = (VOLT_B4 << 24) | (VOLT_B3 << 16) | (VOLT_B2 << 8) | VOLT_B1; 
 732              		.loc 1 138 0
 733 00d6 9DF80440 		ldrb	r4, [sp, #4]	@ zero_extendqisi2
 734              	.LVL44:
 735 00da 264A     		ldr	r2, .L62+24
 736 00dc 1470     		strb	r4, [r2]
 139:can_manga.c   ****             break;
 737              		.loc 1 139 0
 738 00de 1C78     		ldrb	r4, [r3]	@ zero_extendqisi2
 739 00e0 0378     		ldrb	r3, [r0]	@ zero_extendqisi2
 740 00e2 1B04     		lsls	r3, r3, #16
 741 00e4 43EA0463 		orr	r3, r3, r4, lsl #24
 742 00e8 0978     		ldrb	r1, [r1]	@ zero_extendqisi2
 743 00ea 43EA0123 		orr	r3, r3, r1, lsl #8
 744 00ee 1278     		ldrb	r2, [r2]	@ zero_extendqisi2
 745 00f0 1343     		orrs	r3, r3, r2
 746 00f2 214A     		ldr	r2, .L62+28
 747 00f4 1360     		str	r3, [r2]
 140:can_manga.c   ****         case 0x0488:   // BMS Temp data
 748              		.loc 1 140 0
 749 00f6 2CE0     		b	.L47
 750              	.LVL45:
 751              	.L57:
 142:can_manga.c   ****             ERROR_NODE = data[CAN_DATA_BYTE_7];
 752              		.loc 1 142 0
 753 00f8 9DF80620 		ldrb	r2, [sp, #6]	@ zero_extendqisi2
 754 00fc 1F4B     		ldr	r3, .L62+32
 755 00fe 1A60     		str	r2, [r3]
 143:can_manga.c   ****             PACK_TEMP = data[CAN_DATA_BYTE_8];
 756              		.loc 1 143 0
 757 0100 9DF80520 		ldrb	r2, [sp, #5]	@ zero_extendqisi2
 758 0104 1E4B     		ldr	r3, .L62+36
 759 0106 1A60     		str	r2, [r3]
 144:can_manga.c   ****             tempAttenuate();
 760              		.loc 1 144 0
 761 0108 9DF80420 		ldrb	r2, [sp, #4]	@ zero_extendqisi2
 762 010c 1D4B     		ldr	r3, .L62+40
 763 010e 1A70     		strb	r2, [r3]
 145:can_manga.c   ****             break;
 764              		.loc 1 145 0
 765 0110 FFF7FEFF 		bl	tempAttenuate
 766              	.LVL46:
 146:can_manga.c   ****         case 0x521: // current data from IVT
 767              		.loc 1 146 0
 768 0114 1DE0     		b	.L47
 769              	.L58:
 148:can_manga.c   ****             current_bytes[1] = data[CAN_DATA_BYTE_4];
 770              		.loc 1 148 0
 771 0116 9DF80140 		ldrb	r4, [sp, #1]	@ zero_extendqisi2
 772              	.LVL47:
 773 011a 1049     		ldr	r1, .L62
 774 011c 0C72     		strb	r4, [r1, #8]
 149:can_manga.c   ****             current_bytes[2] = data[CAN_DATA_BYTE_5];
 775              		.loc 1 149 0
 776 011e 9DF80030 		ldrb	r3, [sp]	@ zero_extendqisi2
 777 0122 4B72     		strb	r3, [r1, #9]
 150:can_manga.c   ****             current_bytes[3] = data[CAN_DATA_BYTE_6];
ARM GAS  C:\Users\ianrd\AppData\Local\Temp\ccpkKoWg.s 			page 20


 778              		.loc 1 150 0
 779 0124 9DF80700 		ldrb	r0, [sp, #7]	@ zero_extendqisi2
 780 0128 8872     		strb	r0, [r1, #10]
 151:can_manga.c   ****             CURRENT = (current_bytes[0] << 24) + (current_bytes[1] << 16) + (current_bytes[2] << 8)
 781              		.loc 1 151 0
 782 012a 9DF80620 		ldrb	r2, [sp, #6]	@ zero_extendqisi2
 783 012e CA72     		strb	r2, [r1, #11]
 152:can_manga.c   ****             break;
 784              		.loc 1 152 0
 785 0130 1B04     		lsls	r3, r3, #16
 786 0132 03EB0463 		add	r3, r3, r4, lsl #24
 787 0136 03EB0023 		add	r3, r3, r0, lsl #8
 788 013a 1344     		add	r3, r3, r2
 789 013c 124A     		ldr	r2, .L62+44
 790 013e 1360     		str	r3, [r2]
 153:can_manga.c   ****         case 0x188:
 791              		.loc 1 153 0
 792 0140 07E0     		b	.L47
 793              	.LVL48:
 794              	.L50:
 155:can_manga.c   ****             break;
 795              		.loc 1 155 0
 796 0142 9DF80120 		ldrb	r2, [sp, #1]	@ zero_extendqisi2
 797 0146 9DF80030 		ldrb	r3, [sp]	@ zero_extendqisi2
 798              	.LVL49:
 799 014a 43EA0223 		orr	r3, r3, r2, lsl #8
 800 014e 0F4A     		ldr	r2, .L62+48
 801 0150 1380     		strh	r3, [r2]	@ movhi
 802              	.LVL50:
 803              	.L47:
 159:can_manga.c   **** }
 804              		.loc 1 159 0
 805 0152 3046     		mov	r0, r6
 806 0154 FFF7FEFF 		bl	CyExitCriticalSection
 807              	.LVL51:
 160:can_manga.c   **** 
 808              		.loc 1 160 0
 809 0158 02B0     		add	sp, sp, #8
 810              		.cfi_def_cfa_offset 16
 811              		@ sp needed
 812 015a 70BD     		pop	{r4, r5, r6, pc}
 813              	.LVL52:
 814              	.L63:
 815              		.align	2
 816              	.L62:
 817 015c 00000000 		.word	.LANCHOR0
 818 0160 00000000 		.word	BSPD_CATCH
 819 0164 00000000 		.word	pedalOK
 820 0168 00000000 		.word	VOLT_B4
 821 016c 00000000 		.word	VOLT_B3
 822 0170 00000000 		.word	VOLT_B2
 823 0174 00000000 		.word	VOLT_B1
 824 0178 00000000 		.word	voltage
 825 017c 00000000 		.word	ERROR_IDX
 826 0180 00000000 		.word	ERROR_NODE
 827 0184 00000000 		.word	PACK_TEMP
 828 0188 00000000 		.word	CURRENT
ARM GAS  C:\Users\ianrd\AppData\Local\Temp\ccpkKoWg.s 			page 21


 829 018c 00000000 		.word	bms_status
 830              		.cfi_endproc
 831              	.LFE71:
 832              		.size	can_receive, .-can_receive
 833              		.global	current_bytes
 834              		.comm	VOLT_B4,1,1
 835              		.comm	VOLT_B3,1,1
 836              		.comm	VOLT_B2,1,1
 837              		.comm	VOLT_B1,1,1
 838              		.global	THROTTLE_LOW
 839              		.global	THROTTLE_HIGH
 840              		.global	ABS_MOTOR_RPM
 841              		.global	ERROR_TOLERANCE
 842              		.global	ACK_RX
 843              		.global	CURTIS_HEART_BEAT_CHECK
 844              		.global	CURTIS_FAULT_CHECK
 845              		.global	CAPACITOR_VOLT
 846              		.comm	FRAME,30,4
 847              		.bss
 848              		.align	2
 849              		.set	.LANCHOR0,. + 0
 850              		.type	CAPACITOR_VOLT, %object
 851              		.size	CAPACITOR_VOLT, 1
 852              	CAPACITOR_VOLT:
 853 0000 00       		.space	1
 854              		.type	CURTIS_FAULT_CHECK, %object
 855              		.size	CURTIS_FAULT_CHECK, 1
 856              	CURTIS_FAULT_CHECK:
 857 0001 00       		.space	1
 858              		.type	CURTIS_HEART_BEAT_CHECK, %object
 859              		.size	CURTIS_HEART_BEAT_CHECK, 1
 860              	CURTIS_HEART_BEAT_CHECK:
 861 0002 00       		.space	1
 862              		.type	ACK_RX, %object
 863              		.size	ACK_RX, 1
 864              	ACK_RX:
 865 0003 00       		.space	1
 866              		.type	ERROR_TOLERANCE, %object
 867              		.size	ERROR_TOLERANCE, 1
 868              	ERROR_TOLERANCE:
 869 0004 00       		.space	1
 870              		.type	ABS_MOTOR_RPM, %object
 871              		.size	ABS_MOTOR_RPM, 1
 872              	ABS_MOTOR_RPM:
 873 0005 00       		.space	1
 874              		.type	THROTTLE_LOW, %object
 875              		.size	THROTTLE_LOW, 1
 876              	THROTTLE_LOW:
 877 0006 00       		.space	1
 878              		.type	THROTTLE_HIGH, %object
 879              		.size	THROTTLE_HIGH, 1
 880              	THROTTLE_HIGH:
 881 0007 00       		.space	1
 882              		.type	current_bytes, %object
 883              		.size	current_bytes, 4
 884              	current_bytes:
 885 0008 00000000 		.space	4
ARM GAS  C:\Users\ianrd\AppData\Local\Temp\ccpkKoWg.s 			page 22


 886              		.text
 887              	.Letext0:
 888              		.file 2 "c:\\program files (x86)\\cypress\\psoc creator\\4.2\\psoc creator\\import\\gnu\\arm\\5.4.
 889              		.file 3 "c:\\program files (x86)\\cypress\\psoc creator\\4.2\\psoc creator\\import\\gnu\\arm\\5.4.
 890              		.file 4 "Generated_Source\\PSoC5/cytypes.h"
 891              		.file 5 "Generated_Source\\PSoC5/CAN.h"
 892              		.file 6 "data.h"
 893              		.file 7 "glcdfont.h"
 894              		.file 8 "Generated_Source\\PSoC5/core_cm3.h"
 895              		.file 9 "T6963C.h"
 896              		.file 10 "Generated_Source\\PSoC5/CyLib.h"