ARM GAS  C:\Users\willy\AppData\Local\Temp\ccAHgQbi.s 			page 1


   1              		.syntax unified
   2              		.cpu cortex-m3
   3              		.fpu softvfp
   4              		.eabi_attribute 20, 1
   5              		.eabi_attribute 21, 1
   6              		.eabi_attribute 23, 3
   7              		.eabi_attribute 24, 1
   8              		.eabi_attribute 25, 1
   9              		.eabi_attribute 26, 1
  10              		.eabi_attribute 30, 1
  11              		.eabi_attribute 34, 1
  12              		.eabi_attribute 18, 4
  13              		.thumb
  14              		.syntax unified
  15              		.file	"main.c"
  16              		.text
  17              	.Ltext0:
  18              		.cfi_sections	.debug_frame
  19              		.section	.text.ISR_WDT,"ax",%progbits
  20              		.align	2
  21              		.global	ISR_WDT
  22              		.thumb
  23              		.thumb_func
  24              		.type	ISR_WDT, %function
  25              	ISR_WDT:
  26              	.LFB67:
  27              		.file 1 "main.c"
   1:main.c        **** #include <project.h>
   2:main.c        **** #include <stdio.h>
   3:main.c        **** #include "T6963C.h"
   4:main.c        **** #include "graphic.h"
   5:main.c        **** #include "LED.h"
   6:main.c        **** #include "can_manga.h"
   7:main.c        **** #include "data.h"
   8:main.c        **** 
   9:main.c        **** // Uncomment THROTTLE_LIMITING to enable power reduction at high temperatures
  10:main.c        **** #define THROTTLE_LIMITING
  11:main.c        **** 
  12:main.c        **** volatile double THROTTLE_MULTIPLIER = 1;
  13:main.c        **** 
  14:main.c        **** // declared external in can_manga.c
  15:main.c        **** volatile uint8 PACK_TEMP = 0;
  16:main.c        **** volatile int32 CURRENT = 0;
  17:main.c        **** volatile uint32_t voltage = 0;
  18:main.c        **** uint8_t charge = 0;
  19:main.c        **** 
  20:main.c        **** const double THROTTLE_MAP[8] = { 95, 71, 59, 47, 35, 23, 11, 5 };
  21:main.c        **** 
  22:main.c        **** uint16_t curr_voltage = 0;
  23:main.c        **** 
  24:main.c        **** #define PWM_PULSE_WIDTH_STEP        (10u)
  25:main.c        **** #define SWITCH_PRESSED              (0u)
  26:main.c        **** #define PWM_MESSAGE_ID              (0x1AAu)
  27:main.c        **** #define PWM_MESSAGE_IDE             (0u)    /* Standard message */
  28:main.c        **** #define PWM_MESSAGE_IRQ             (0u)    /* No transmit IRQ */
  29:main.c        **** #define PWM_MESSAGE_RTR             (0u)    /* No RTR */
  30:main.c        **** #define CAN_RX_MAILBOX_0_SHIFT      (1u)
ARM GAS  C:\Users\willy\AppData\Local\Temp\ccAHgQbi.s 			page 2


  31:main.c        **** #define CAN_RX_MAILBOX_1_SHIFT      (2u)
  32:main.c        **** #define DATA_SIZE                   (6u)
  33:main.c        **** #define ONE_BYTE_OFFSET             (8u)
  34:main.c        **** 
  35:main.c        **** #define PEDAL_TIMEOUT 100 // Timeout after (PEDAL_TIMEOUT * 10)ms
  36:main.c        **** 
  37:main.c        **** /* Function prototypes */
  38:main.c        **** //CY_ISR_PROTO(ISR_CAN);
  39:main.c        **** 
  40:main.c        **** /* Global variables used to store configuration and data for BASIC CAN mailbox */
  41:main.c        **** //CAN_DATA_BYTES_MSG dataPWM;
  42:main.c        **** //CAN_TX_MSG messagePWM;
  43:main.c        **** 
  44:main.c        **** /* Global variable used to store PWM pulse width value */
  45:main.c        **** //uint8 pulseWidthValue = 0u;
  46:main.c        **** 
  47:main.c        **** /* Global variable used to store receive message mailbox number */
  48:main.c        **** //volatile uint8 receiveMailboxNumber = 0xFFu;
  49:main.c        **** 
  50:main.c        **** void nodeCheckStart()
  51:main.c        **** {
  52:main.c        ****     Node_Timer_Start();
  53:main.c        ****     isr_nodeok_Start();
  54:main.c        **** }
  55:main.c        **** 
  56:main.c        **** CY_ISR(ISR_WDT){
  28              		.loc 1 56 0
  29              		.cfi_startproc
  30              		@ args = 0, pretend = 0, frame = 0
  31              		@ frame_needed = 0, uses_anonymous_args = 0
  32 0000 08B5     		push	{r3, lr}
  33              		.cfi_def_cfa_offset 8
  34              		.cfi_offset 3, -8
  35              		.cfi_offset 14, -4
  57:main.c        ****     WDT_Timer_STATUS;
  36              		.loc 1 57 0
  37 0002 064B     		ldr	r3, .L3
  38 0004 1B78     		ldrb	r3, [r3]	@ zero_extendqisi2
  58:main.c        ****     WDT_Reset_Write(0);
  39              		.loc 1 58 0
  40 0006 0020     		movs	r0, #0
  41 0008 FFF7FEFF 		bl	WDT_Reset_Write
  42              	.LVL0:
  59:main.c        ****     CyDelay(100);
  43              		.loc 1 59 0
  44 000c 6420     		movs	r0, #100
  45 000e FFF7FEFF 		bl	CyDelay
  46              	.LVL1:
  60:main.c        ****     WDT_Reset_Write(1);
  47              		.loc 1 60 0
  48 0012 0120     		movs	r0, #1
  49 0014 FFF7FEFF 		bl	WDT_Reset_Write
  50              	.LVL2:
  51 0018 08BD     		pop	{r3, pc}
  52              	.L4:
  53 001a 00BF     		.align	2
  54              	.L3:
ARM GAS  C:\Users\willy\AppData\Local\Temp\ccAHgQbi.s 			page 3


  55 001c 67650040 		.word	1073767783
  56              		.cfi_endproc
  57              	.LFE67:
  58              		.size	ISR_WDT, .-ISR_WDT
  59              		.section	.text.LED_color,"ax",%progbits
  60              		.align	2
  61              		.global	LED_color
  62              		.thumb
  63              		.thumb_func
  64              		.type	LED_color, %function
  65              	LED_color:
  66              	.LFB64:
  67              		.file 2 "LED.h"
   1:LED.h         **** /* ========================================
   2:LED.h         ****  *
   3:LED.h         ****  * Copyright YOUR COMPANY, THE YEAR
   4:LED.h         ****  * All Rights Reserved
   5:LED.h         ****  * UNPUBLISHED, LICENSED SOFTWARE.
   6:LED.h         ****  *
   7:LED.h         ****  * CONFIDENTIAL AND PROPRIETARY INFORMATION
   8:LED.h         ****  * WHICH IS THE PROPERTY OF your company.
   9:LED.h         ****  *
  10:LED.h         ****  * ========================================
  11:LED.h         **** */
  12:LED.h         **** 
  13:LED.h         **** #include "project.h"
  14:LED.h         **** 
  15:LED.h         **** #if !defined(LED_H)
  16:LED.h         **** #define LED_H
  17:LED.h         **** 
  18:LED.h         **** 
  19:LED.h         **** typedef enum color {
  20:LED.h         ****     WHITE,
  21:LED.h         ****     RED,
  22:LED.h         ****     YELLOW,
  23:LED.h         ****     GREEN,
  24:LED.h         ****     CYAN,
  25:LED.h         ****     BLUE,
  26:LED.h         ****     MAGENTA,
  27:LED.h         ****     OFF
  28:LED.h         **** } color_t;
  29:LED.h         **** 
  30:LED.h         **** void LED_color(color_t color) {
  68              		.loc 2 30 0
  69              		.cfi_startproc
  70              		@ args = 0, pretend = 0, frame = 0
  71              		@ frame_needed = 0, uses_anonymous_args = 0
  72              	.LVL3:
  73 0000 08B5     		push	{r3, lr}
  74              		.cfi_def_cfa_offset 8
  75              		.cfi_offset 3, -8
  76              		.cfi_offset 14, -4
  31:LED.h         ****     switch(color){
  77              		.loc 2 31 0
  78 0002 0728     		cmp	r0, #7
  79 0004 54D8     		bhi	.L5
  80 0006 DFE800F0 		tbb	[pc, r0]
ARM GAS  C:\Users\willy\AppData\Local\Temp\ccAHgQbi.s 			page 4


  81              	.L8:
  82 000a 04       		.byte	(.L7-.L8)/2
  83 000b 0E       		.byte	(.L9-.L8)/2
  84 000c 18       		.byte	(.L10-.L8)/2
  85 000d 22       		.byte	(.L11-.L8)/2
  86 000e 2C       		.byte	(.L12-.L8)/2
  87 000f 36       		.byte	(.L13-.L8)/2
  88 0010 40       		.byte	(.L14-.L8)/2
  89 0011 4A       		.byte	(.L15-.L8)/2
  90              		.p2align 1
  91              	.L7:
  32:LED.h         ****         case WHITE:
  33:LED.h         ****             RGB1_1_Write(0);
  92              		.loc 2 33 0
  93 0012 0020     		movs	r0, #0
  94              	.LVL4:
  95 0014 FFF7FEFF 		bl	RGB1_1_Write
  96              	.LVL5:
  34:LED.h         ****             RGB2_1_Write(0);
  97              		.loc 2 34 0
  98 0018 0020     		movs	r0, #0
  99 001a FFF7FEFF 		bl	RGB2_1_Write
 100              	.LVL6:
  35:LED.h         ****             RGB3_1_Write(0);
 101              		.loc 2 35 0
 102 001e 0020     		movs	r0, #0
 103 0020 FFF7FEFF 		bl	RGB3_1_Write
 104              	.LVL7:
  36:LED.h         ****         break;
 105              		.loc 2 36 0
 106 0024 08BD     		pop	{r3, pc}
 107              	.LVL8:
 108              	.L9:
  37:LED.h         ****         case RED:
  38:LED.h         ****             RGB1_1_Write(0);
 109              		.loc 2 38 0
 110 0026 0020     		movs	r0, #0
 111              	.LVL9:
 112 0028 FFF7FEFF 		bl	RGB1_1_Write
 113              	.LVL10:
  39:LED.h         ****             RGB2_1_Write(1);
 114              		.loc 2 39 0
 115 002c 0120     		movs	r0, #1
 116 002e FFF7FEFF 		bl	RGB2_1_Write
 117              	.LVL11:
  40:LED.h         ****             RGB3_1_Write(1);
 118              		.loc 2 40 0
 119 0032 0120     		movs	r0, #1
 120 0034 FFF7FEFF 		bl	RGB3_1_Write
 121              	.LVL12:
  41:LED.h         ****         break;
 122              		.loc 2 41 0
 123 0038 08BD     		pop	{r3, pc}
 124              	.LVL13:
 125              	.L10:
  42:LED.h         ****         case YELLOW:
  43:LED.h         ****             RGB1_1_Write(0);
ARM GAS  C:\Users\willy\AppData\Local\Temp\ccAHgQbi.s 			page 5


 126              		.loc 2 43 0
 127 003a 0020     		movs	r0, #0
 128              	.LVL14:
 129 003c FFF7FEFF 		bl	RGB1_1_Write
 130              	.LVL15:
  44:LED.h         ****             RGB2_1_Write(1);
 131              		.loc 2 44 0
 132 0040 0120     		movs	r0, #1
 133 0042 FFF7FEFF 		bl	RGB2_1_Write
 134              	.LVL16:
  45:LED.h         ****             RGB3_1_Write(0);
 135              		.loc 2 45 0
 136 0046 0020     		movs	r0, #0
 137 0048 FFF7FEFF 		bl	RGB3_1_Write
 138              	.LVL17:
  46:LED.h         ****         break;
 139              		.loc 2 46 0
 140 004c 08BD     		pop	{r3, pc}
 141              	.LVL18:
 142              	.L11:
  47:LED.h         ****         case GREEN:
  48:LED.h         ****             RGB1_1_Write(1);
 143              		.loc 2 48 0
 144 004e 0120     		movs	r0, #1
 145              	.LVL19:
 146 0050 FFF7FEFF 		bl	RGB1_1_Write
 147              	.LVL20:
  49:LED.h         ****             RGB2_1_Write(1);
 148              		.loc 2 49 0
 149 0054 0120     		movs	r0, #1
 150 0056 FFF7FEFF 		bl	RGB2_1_Write
 151              	.LVL21:
  50:LED.h         ****             RGB3_1_Write(0);
 152              		.loc 2 50 0
 153 005a 0020     		movs	r0, #0
 154 005c FFF7FEFF 		bl	RGB3_1_Write
 155              	.LVL22:
  51:LED.h         ****         break;
 156              		.loc 2 51 0
 157 0060 08BD     		pop	{r3, pc}
 158              	.LVL23:
 159              	.L12:
  52:LED.h         ****         case CYAN:
  53:LED.h         ****             RGB1_1_Write(1);
 160              		.loc 2 53 0
 161 0062 0120     		movs	r0, #1
 162              	.LVL24:
 163 0064 FFF7FEFF 		bl	RGB1_1_Write
 164              	.LVL25:
  54:LED.h         ****             RGB2_1_Write(0);
 165              		.loc 2 54 0
 166 0068 0020     		movs	r0, #0
 167 006a FFF7FEFF 		bl	RGB2_1_Write
 168              	.LVL26:
  55:LED.h         ****             RGB3_1_Write(0);
 169              		.loc 2 55 0
 170 006e 0020     		movs	r0, #0
ARM GAS  C:\Users\willy\AppData\Local\Temp\ccAHgQbi.s 			page 6


 171 0070 FFF7FEFF 		bl	RGB3_1_Write
 172              	.LVL27:
  56:LED.h         ****         break;
 173              		.loc 2 56 0
 174 0074 08BD     		pop	{r3, pc}
 175              	.LVL28:
 176              	.L13:
  57:LED.h         ****         case BLUE:
  58:LED.h         ****             RGB1_1_Write(1);
 177              		.loc 2 58 0
 178 0076 0120     		movs	r0, #1
 179              	.LVL29:
 180 0078 FFF7FEFF 		bl	RGB1_1_Write
 181              	.LVL30:
  59:LED.h         ****             RGB2_1_Write(0);
 182              		.loc 2 59 0
 183 007c 0020     		movs	r0, #0
 184 007e FFF7FEFF 		bl	RGB2_1_Write
 185              	.LVL31:
  60:LED.h         ****             RGB3_1_Write(1);
 186              		.loc 2 60 0
 187 0082 0120     		movs	r0, #1
 188 0084 FFF7FEFF 		bl	RGB3_1_Write
 189              	.LVL32:
  61:LED.h         ****         break;
 190              		.loc 2 61 0
 191 0088 08BD     		pop	{r3, pc}
 192              	.LVL33:
 193              	.L14:
  62:LED.h         ****         case MAGENTA:
  63:LED.h         ****             RGB1_1_Write(0);
 194              		.loc 2 63 0
 195 008a 0020     		movs	r0, #0
 196              	.LVL34:
 197 008c FFF7FEFF 		bl	RGB1_1_Write
 198              	.LVL35:
  64:LED.h         ****             RGB2_1_Write(0);
 199              		.loc 2 64 0
 200 0090 0020     		movs	r0, #0
 201 0092 FFF7FEFF 		bl	RGB2_1_Write
 202              	.LVL36:
  65:LED.h         ****             RGB3_1_Write(1); 
 203              		.loc 2 65 0
 204 0096 0120     		movs	r0, #1
 205 0098 FFF7FEFF 		bl	RGB3_1_Write
 206              	.LVL37:
  66:LED.h         ****         break;
 207              		.loc 2 66 0
 208 009c 08BD     		pop	{r3, pc}
 209              	.LVL38:
 210              	.L15:
  67:LED.h         ****         case OFF:
  68:LED.h         ****             RGB1_1_Write(1);
 211              		.loc 2 68 0
 212 009e 0120     		movs	r0, #1
 213              	.LVL39:
 214 00a0 FFF7FEFF 		bl	RGB1_1_Write
ARM GAS  C:\Users\willy\AppData\Local\Temp\ccAHgQbi.s 			page 7


 215              	.LVL40:
  69:LED.h         ****             RGB2_1_Write(1);
 216              		.loc 2 69 0
 217 00a4 0120     		movs	r0, #1
 218 00a6 FFF7FEFF 		bl	RGB2_1_Write
 219              	.LVL41:
  70:LED.h         ****             RGB3_1_Write(1);
 220              		.loc 2 70 0
 221 00aa 0120     		movs	r0, #1
 222 00ac FFF7FEFF 		bl	RGB3_1_Write
 223              	.LVL42:
 224              	.L5:
 225 00b0 08BD     		pop	{r3, pc}
 226              		.cfi_endproc
 227              	.LFE64:
 228              		.size	LED_color, .-LED_color
 229 00b2 00BF     		.section	.text.LED_color_wheel,"ax",%progbits
 230              		.align	2
 231              		.global	LED_color_wheel
 232              		.thumb
 233              		.thumb_func
 234              		.type	LED_color_wheel, %function
 235              	LED_color_wheel:
 236              	.LFB65:
  71:LED.h         ****         break;
  72:LED.h         ****     }
  73:LED.h         **** }
  74:LED.h         **** 
  75:LED.h         **** void LED_color_wheel(int ms) {
 237              		.loc 2 75 0
 238              		.cfi_startproc
 239              		@ args = 0, pretend = 0, frame = 0
 240              		@ frame_needed = 0, uses_anonymous_args = 0
 241              	.LVL43:
 242 0000 38B5     		push	{r3, r4, r5, lr}
 243              		.cfi_def_cfa_offset 16
 244              		.cfi_offset 3, -16
 245              		.cfi_offset 4, -12
 246              		.cfi_offset 5, -8
 247              		.cfi_offset 14, -4
 248 0002 0546     		mov	r5, r0
 249              	.LVL44:
 250              	.LBB2:
  76:LED.h         ****     for (int i = 0; i < 8; i++) {
 251              		.loc 2 76 0
 252 0004 0024     		movs	r4, #0
 253 0006 06E0     		b	.L18
 254              	.LVL45:
 255              	.L19:
  77:LED.h         ****         LED_color(i);
 256              		.loc 2 77 0 discriminator 3
 257 0008 E0B2     		uxtb	r0, r4
 258 000a FFF7FEFF 		bl	LED_color
 259              	.LVL46:
  78:LED.h         ****         CyDelay(ms);
 260              		.loc 2 78 0 discriminator 3
 261 000e 2846     		mov	r0, r5
ARM GAS  C:\Users\willy\AppData\Local\Temp\ccAHgQbi.s 			page 8


 262 0010 FFF7FEFF 		bl	CyDelay
 263              	.LVL47:
  76:LED.h         ****     for (int i = 0; i < 8; i++) {
 264              		.loc 2 76 0 discriminator 3
 265 0014 0134     		adds	r4, r4, #1
 266              	.LVL48:
 267              	.L18:
  76:LED.h         ****     for (int i = 0; i < 8; i++) {
 268              		.loc 2 76 0 is_stmt 0 discriminator 1
 269 0016 072C     		cmp	r4, #7
 270 0018 F6DD     		ble	.L19
 271              	.LBE2:
  79:LED.h         ****     }
  80:LED.h         **** }
 272              		.loc 2 80 0 is_stmt 1
 273 001a 38BD     		pop	{r3, r4, r5, pc}
 274              		.cfi_endproc
 275              	.LFE65:
 276              		.size	LED_color_wheel, .-LED_color_wheel
 277              		.section	.text.nodeCheckStart,"ax",%progbits
 278              		.align	2
 279              		.global	nodeCheckStart
 280              		.thumb
 281              		.thumb_func
 282              		.type	nodeCheckStart, %function
 283              	nodeCheckStart:
 284              	.LFB66:
  51:main.c        ****     Node_Timer_Start();
 285              		.loc 1 51 0
 286              		.cfi_startproc
 287              		@ args = 0, pretend = 0, frame = 0
 288              		@ frame_needed = 0, uses_anonymous_args = 0
 289 0000 08B5     		push	{r3, lr}
 290              		.cfi_def_cfa_offset 8
 291              		.cfi_offset 3, -8
 292              		.cfi_offset 14, -4
  52:main.c        ****     isr_nodeok_Start();
 293              		.loc 1 52 0
 294 0002 FFF7FEFF 		bl	Node_Timer_Start
 295              	.LVL49:
  53:main.c        **** }
 296              		.loc 1 53 0
 297 0006 FFF7FEFF 		bl	isr_nodeok_Start
 298              	.LVL50:
 299 000a 08BD     		pop	{r3, pc}
 300              		.cfi_endproc
 301              	.LFE66:
 302              		.size	nodeCheckStart, .-nodeCheckStart
 303              		.global	__aeabi_ui2d
 304              		.global	__aeabi_dmul
 305              		.global	__aeabi_d2uiz
 306              		.section	.text.main,"ax",%progbits
 307              		.align	2
 308              		.global	main
 309              		.thumb
 310              		.thumb_func
 311              		.type	main, %function
ARM GAS  C:\Users\willy\AppData\Local\Temp\ccAHgQbi.s 			page 9


 312              	main:
 313              	.LFB68:
  61:main.c        **** }
  62:main.c        **** 
  63:main.c        **** typedef enum 
  64:main.c        **** {
  65:main.c        **** 	Startup,
  66:main.c        **** 	LV,
  67:main.c        **** 	Precharging,
  68:main.c        **** 	HV_Enabled,
  69:main.c        **** 	Drive,
  70:main.c        **** 	Fault
  71:main.c        ****     
  72:main.c        **** }Dash_State;
  73:main.c        **** 
  74:main.c        **** typedef enum 
  75:main.c        **** {
  76:main.c        **** 	OK,
  77:main.c        **** 	fromLV,
  78:main.c        **** 	fromPrecharging,
  79:main.c        **** 	fromHV_Enabled,
  80:main.c        **** 	fromDrive,
  81:main.c        ****     fromFault,
  82:main.c        ****     nodeFailure
  83:main.c        ****     
  84:main.c        **** }Error_State;
  85:main.c        **** 
  86:main.c        **** /* Switch state defines -- Active High*/ 
  87:main.c        **** #define SWITCH_ON         (1u)
  88:main.c        **** #define SWITCH_OFF        (0u)
  89:main.c        **** /* Switch debounce delay in milliseconds */
  90:main.c        **** #define SWITCH_DEBOUNCE_UNIT   (1u)
  91:main.c        **** /* Number of debounce units to count delay, before consider that switch is pressed */
  92:main.c        **** #define SWITCH_DEBOUNCE_PERIOD (10u)
  93:main.c        **** /* Function prototypes */
  94:main.c        **** static uint32 ReadSwSwitch(void);
  95:main.c        **** 
  96:main.c        **** /* Global variable used to store switch state */
  97:main.c        **** uint8 HVSwitch = SWITCH_OFF;
  98:main.c        **** uint8 DriveSwitch = SWITCH_OFF;
  99:main.c        **** //volatile Dash_State state = Startup;
 100:main.c        **** 
 101:main.c        **** // Global variables used to track status of nodes
 102:main.c        **** volatile uint32_t pedalOK = 0; // for pedal node
 103:main.c        **** 
 104:main.c        **** volatile int previous_state = -1; // used for SOC writing
 105:main.c        **** 
 106:main.c        **** /*******************************************************************************
 107:main.c        **** * Function Name: main
 108:main.c        **** ********************************************************************************
 109:main.c        **** *
 110:main.c        **** * Summary:
 111:main.c        **** *  main() performs the following functions:
 112:main.c        **** *  1: Initializes a structure for the Basic CAN mailbox to send messages.
 113:main.c        **** *  2: Starts the CAN and LCD components.
 114:main.c        **** *  3: When received Message 1, sends the PWM pulse width and displays
 115:main.c        **** *     received switch status and value of PWM pulse width on an LCD; 
ARM GAS  C:\Users\willy\AppData\Local\Temp\ccAHgQbi.s 			page 10


 116:main.c        **** *     When received Message 2, display received ADC data on an LCD.
 117:main.c        **** *
 118:main.c        **** * Parameters:
 119:main.c        **** *  None.
 120:main.c        **** *
 121:main.c        **** * Return:
 122:main.c        **** *  None.
 123:main.c        **** *
 124:main.c        **** *******************************************************************************/
 125:main.c        **** 
 126:main.c        **** int main()
 127:main.c        **** {   
 314              		.loc 1 127 0
 315              		.cfi_startproc
 316              		@ args = 0, pretend = 0, frame = 8
 317              		@ frame_needed = 0, uses_anonymous_args = 0
 318 0000 2DE9F047 		push	{r4, r5, r6, r7, r8, r9, r10, lr}
 319              		.cfi_def_cfa_offset 32
 320              		.cfi_offset 4, -32
 321              		.cfi_offset 5, -28
 322              		.cfi_offset 6, -24
 323              		.cfi_offset 7, -20
 324              		.cfi_offset 8, -16
 325              		.cfi_offset 9, -12
 326              		.cfi_offset 10, -8
 327              		.cfi_offset 14, -4
 328 0004 82B0     		sub	sp, sp, #8
 329              		.cfi_def_cfa_offset 40
 128:main.c        ****     EEPROM_1_Start();
 330              		.loc 1 128 0
 331 0006 FFF7FEFF 		bl	EEPROM_1_Start
 332              	.LVL51:
 129:main.c        ****     
 130:main.c        ****     Dash_State state = Startup;
 131:main.c        ****     Error_State error_state = OK;
 132:main.c        ****     
 133:main.c        ****     //Tach Meter Stuff
 134:main.c        ****     uint8_t value=0; // replace the value with 
 135:main.c        ****     int8_t direction=1;
 136:main.c        ****     
 137:main.c        ****     //precharging time counter
 138:main.c        ****     volatile uint32_t PrechargingTimeCount = 0;
 333              		.loc 1 138 0
 334 000a 0024     		movs	r4, #0
 335 000c 0194     		str	r4, [sp, #4]
 336              	.LVL52:
 139:main.c        ****     uint32_t DriveTimeCount = 0;
 140:main.c        **** 
 141:main.c        ****     CyGlobalIntEnable;
 337              		.loc 1 141 0
 338              		.syntax unified
 339              	@ 141 "main.c" 1
 340 000e 62B6     		CPSIE   i
 341              	@ 0 "" 2
 142:main.c        ****     
 143:main.c        ****     GLCD_Initalize();
 342              		.loc 1 143 0
ARM GAS  C:\Users\willy\AppData\Local\Temp\ccAHgQbi.s 			page 11


 343              		.thumb
 344              		.syntax unified
 345 0010 FFF7FEFF 		bl	GLCD_Initalize
 346              	.LVL53:
 144:main.c        ****     GLCD_Clear_Graphic();
 347              		.loc 1 144 0
 348 0014 FFF7FEFF 		bl	GLCD_Clear_Graphic
 349              	.LVL54:
 145:main.c        ****     GLCD_Clear_Text();
 350              		.loc 1 145 0
 351 0018 FFF7FEFF 		bl	GLCD_Clear_Text
 352              	.LVL55:
 146:main.c        ****     GLCD_Clear_CG();
 353              		.loc 1 146 0
 354 001c FFF7FEFF 		bl	GLCD_Clear_CG
 355              	.LVL56:
 147:main.c        ****     
 148:main.c        ****     nodeCheckStart();
 356              		.loc 1 148 0
 357 0020 FFF7FEFF 		bl	nodeCheckStart
 358              	.LVL57:
 149:main.c        ****     WDT_Timer_Start();
 359              		.loc 1 149 0
 360 0024 FFF7FEFF 		bl	WDT_Timer_Start
 361              	.LVL58:
 150:main.c        ****     isr_wdt_StartEx(ISR_WDT);
 362              		.loc 1 150 0
 363 0028 CE48     		ldr	r0, .L58
 364 002a FFF7FEFF 		bl	isr_wdt_StartEx
 365              	.LVL59:
 139:main.c        **** 
 366              		.loc 1 139 0
 367 002e 2746     		mov	r7, r4
 131:main.c        ****     
 368              		.loc 1 131 0
 369 0030 2546     		mov	r5, r4
 370 0032 1DE0     		b	.L24
 371              	.LVL60:
 372              	.L45:
 373              	.LBB3:
 151:main.c        ****     
 152:main.c        ****     for(;;)
 153:main.c        ****     {
 154:main.c        ****     
 155:main.c        ****         LED_Write(1);
 156:main.c        ****         
 157:main.c        ****         // Check if all nodes are OK
 158:main.c        ****         if (pedalOK > PEDAL_TIMEOUT)
 159:main.c        ****         {
 160:main.c        ****             can_send_cmd(0, 0, 0); // setInterlock. 
 161:main.c        ****             state = Fault;
 162:main.c        ****             error_state = nodeFailure;
 163:main.c        ****         }
 164:main.c        ****         
 165:main.c        ****         switch(state)
 166:main.c        ****         {    
 167:main.c        ****             // startup -- 
ARM GAS  C:\Users\willy\AppData\Local\Temp\ccAHgQbi.s 			page 12


 168:main.c        ****             case Startup:
 169:main.c        ****                 GLCD_Clear_Frame();
 170:main.c        ****                 GLCD_DrawString(0,0,"START",8);
 171:main.c        ****                 GLCD_Write_Frame();
 172:main.c        ****   
 173:main.c        ****                 //Initialize CAN
 174:main.c        ****                 CAN_GlobalIntEnable();
 175:main.c        ****                 CAN_Init();
 176:main.c        ****                 CAN_Start();
 177:main.c        ****                 LED_color_wheel(200);
 178:main.c        ****                 
 179:main.c        ****                 can_send_status(state, error_state);
 180:main.c        **** 
 181:main.c        ****                 Buzzer_Write(1);
 182:main.c        ****                 CyDelay(50);
 183:main.c        ****                 
 184:main.c        ****                 Buzzer_Write(0);
 185:main.c        ****                 
 186:main.c        ****                 state = LV;
 187:main.c        ****                 
 188:main.c        ****             break;
 189:main.c        ****                 
 190:main.c        ****             case LV:
 191:main.c        ****                 GLCD_Clear_Frame();
 192:main.c        ****                 GLCD_DrawString(0,0,"LV",8);
 193:main.c        ****                 GLCD_Write_Frame();
 194:main.c        ****                 
 195:main.c        ****                 CAN_GlobalIntEnable();
 196:main.c        ****                 CAN_Init();
 197:main.c        ****                 CAN_Start();
 198:main.c        ****                 
 199:main.c        ****                 can_send_cmd(0, 0, 0);
 200:main.c        ****                 //nodeCheckStart();
 201:main.c        ****           
 202:main.c        ****                 can_send_status(state, error_state);
 203:main.c        **** 
 204:main.c        ****                 // calcualte SOC and display SOC
 205:main.c        ****                 charge = SOC_LUT[(voltage - 93400) / 100] / 100;
 206:main.c        ****                 //hex2Display(charge);
 207:main.c        **** 
 208:main.c        ****                 Buzzer_Write(0);
 209:main.c        ****                 
 210:main.c        ****                 
 211:main.c        ****                 //
 212:main.c        ****                 // RGB code goes here
 213:main.c        ****                 // pick a color
 214:main.c        ****                 // all on. 
 215:main.c        ****                 LED_color(YELLOW);
 216:main.c        ****                 
 217:main.c        ****                 if (Drive_Read())
 218:main.c        ****                 {
 219:main.c        ****                     state = Fault;
 220:main.c        ****                     error_state = fromLV;
 374              		.loc 1 220 0
 375 0034 0125     		movs	r5, #1
 376              	.LVL61:
 219:main.c        ****                     error_state = fromLV;
ARM GAS  C:\Users\willy\AppData\Local\Temp\ccAHgQbi.s 			page 13


 377              		.loc 1 219 0
 378 0036 0524     		movs	r4, #5
 379              	.LVL62:
 380 0038 1AE0     		b	.L24
 381              	.LVL63:
 382              	.L46:
 221:main.c        ****                     break;
 222:main.c        ****                 }
 223:main.c        ****             
 224:main.c        ****                 if (HV_Read())    /* Switch state changed status */
 225:main.c        ****                 {
 226:main.c        ****                     state = Precharging;
 383              		.loc 1 226 0
 384 003a 0224     		movs	r4, #2
 385              	.LVL64:
 386 003c 18E0     		b	.L24
 387              	.LVL65:
 388              	.L47:
 389              	.LBB4:
 227:main.c        ****                     break;
 228:main.c        ****                 } 
 229:main.c        ****                 
 230:main.c        ****             break;
 231:main.c        ****                 
 232:main.c        ****             case Precharging:
 233:main.c        ****                 GLCD_Clear_Frame();
 234:main.c        ****                 GLCD_DrawString(0,0,"PRCHGE",8);
 235:main.c        ****                 GLCD_Write_Frame();
 236:main.c        ****                 
 237:main.c        ****                 CAN_GlobalIntEnable();
 238:main.c        ****                 CAN_Init();
 239:main.c        ****                 CAN_Start();
 240:main.c        ****                 //nodeCheckStart();
 241:main.c        ****                 
 242:main.c        ****                 can_send_status(state, error_state);
 243:main.c        ****                 
 244:main.c        ****                 LED_color(MAGENTA);
 245:main.c        ****                 Buzzer_Write(0);
 246:main.c        ****                 
 247:main.c        ****                 PrechargingTimeCount = 0;
 248:main.c        ****                 
 249:main.c        ****                 while(1)
 250:main.c        ****                 {
 251:main.c        ****                     can_send_cmd(1, 0, 0); // setInterlock
 252:main.c        ****                 
 253:main.c        ****                     uint8_t CapacitorVolt = getCapacitorVoltage(); //can_read(data_queue, data_head
 254:main.c        ****                    
 255:main.c        ****                     if(CapacitorVolt >= 0x16) // need to be tuned
 256:main.c        ****                     {
 257:main.c        ****                         state = HV_Enabled;
 390              		.loc 1 257 0
 391 003e 0324     		movs	r4, #3
 392              	.LVL66:
 393 0040 16E0     		b	.L24
 394              	.LVL67:
 395              	.L48:
 258:main.c        ****                         break;
ARM GAS  C:\Users\willy\AppData\Local\Temp\ccAHgQbi.s 			page 14


 259:main.c        ****                     }
 260:main.c        ****                 
 261:main.c        ****                 
 262:main.c        ****                     PrechargingTimeCount++;
 263:main.c        ****                 
 264:main.c        ****                     if (PrechargingTimeCount == 10)
 265:main.c        ****                     {
 266:main.c        ****                         state = Fault;
 267:main.c        ****                         error_state = fromPrecharging;
 396              		.loc 1 267 0
 397 0042 0225     		movs	r5, #2
 398              	.LVL68:
 266:main.c        ****                         error_state = fromPrecharging;
 399              		.loc 1 266 0
 400 0044 0524     		movs	r4, #5
 401              	.LVL69:
 402 0046 13E0     		b	.L24
 403              	.LVL70:
 404              	.L49:
 405              	.LBE4:
 268:main.c        ****                         break;
 269:main.c        ****                     }
 270:main.c        ****                 
 271:main.c        ****                     CyDelay(1000);
 272:main.c        ****                 }    
 273:main.c        ****                 
 274:main.c        ****             break;
 275:main.c        **** 	        
 276:main.c        ****             case HV_Enabled:
 277:main.c        ****                 GLCD_Clear_Frame();
 278:main.c        ****                 GLCD_DrawString(0,0,"HV",8);
 279:main.c        ****                 GLCD_Write_Frame();
 280:main.c        **** 
 281:main.c        ****                 CAN_GlobalIntEnable();
 282:main.c        ****                 CAN_Init();
 283:main.c        ****                 CAN_Start();
 284:main.c        ****                 
 285:main.c        ****                 //nodeCheckStart();
 286:main.c        ****                 
 287:main.c        ****                 can_send_status(state, error_state);
 288:main.c        ****                 
 289:main.c        ****                 //
 290:main.c        ****                 // RGB code goes here
 291:main.c        ****                 // Blue
 292:main.c        ****                 LED_color(BLUE);
 293:main.c        ****                 
 294:main.c        ****                 /*
 295:main.c        ****                 RGB3_2_Write(1);
 296:main.c        ****                 RGB2_2_Write(1);
 297:main.c        ****                 RGB1_2_Write(1);
 298:main.c        ****                 */
 299:main.c        ****                 //CyDelay(5000); ///for debug
 300:main.c        ****                 
 301:main.c        ****                 Buzzer_Write(0);
 302:main.c        ****                 
 303:main.c        ****                 //charge = SOC_LUT[(voltage - 93400) / 100] / 100;
 304:main.c        ****                 //hex1Display(charge);
ARM GAS  C:\Users\willy\AppData\Local\Temp\ccAHgQbi.s 			page 15


 305:main.c        ****                 
 306:main.c        ****                 if (Drive_Read())
 307:main.c        ****                 {
 308:main.c        ****                     CyDelay(1000); // wait for the brake msg to be sent
 309:main.c        ****                     if(getErrorTolerance() == 0) // 100 for error tolerance /// needs to be getErro
 310:main.c        ****                     {
 311:main.c        ****                         Buzzer_Write(1);
 312:main.c        ****                         CyDelay(1000);
 313:main.c        ****                         Buzzer_Write(0);
 314:main.c        ****                         state = Drive;
 315:main.c        ****                         break;
 316:main.c        ****                     }
 317:main.c        ****                     else
 318:main.c        ****                     {
 319:main.c        ****                         state = Fault;
 320:main.c        ****                         error_state = fromHV_Enabled;
 406              		.loc 1 320 0
 407 0048 0325     		movs	r5, #3
 408              	.LVL71:
 319:main.c        ****                         error_state = fromHV_Enabled;
 409              		.loc 1 319 0
 410 004a 0524     		movs	r4, #5
 411              	.LVL72:
 412 004c 10E0     		b	.L24
 413              	.LVL73:
 414              	.L50:
 321:main.c        ****                         break;
 322:main.c        ****                     }                     
 323:main.c        ****                 }
 324:main.c        ****                 
 325:main.c        ****                 // if capacitor voltage is undervoltage, change the threshold 0x16
 326:main.c        ****                 if(!HV_Read() | (getCapacitorVoltage() < 0x16))
 327:main.c        ****                 {
 328:main.c        ****                     state = LV;
 329:main.c        ****                     DriveTimeCount = 0;
 415              		.loc 1 329 0
 416 004e 0027     		movs	r7, #0
 417              	.LVL74:
 328:main.c        ****                     DriveTimeCount = 0;
 418              		.loc 1 328 0
 419 0050 0124     		movs	r4, #1
 420              	.LVL75:
 421 0052 0DE0     		b	.L24
 422              	.LVL76:
 423              	.L52:
 330:main.c        ****                     break;
 331:main.c        ****                 }
 332:main.c        ****                 
 333:main.c        ****             break;
 334:main.c        ****                 
 335:main.c        **** 	        case Drive:
 336:main.c        ****                 //CAN_GlobalIntEnable();
 337:main.c        ****                 //CAN_Init();
 338:main.c        ****                 //CAN_Start();
 339:main.c        ****                 
 340:main.c        ****                 can_send_charge(charge, 0);
 341:main.c        ****                 
ARM GAS  C:\Users\willy\AppData\Local\Temp\ccAHgQbi.s 			page 16


 342:main.c        ****                 can_send_status(state, error_state);
 343:main.c        ****                 //
 344:main.c        ****                 // RGB code goes here
 345:main.c        ****                 // Green
 346:main.c        ****                 LED_color(GREEN);
 347:main.c        ****                 
 348:main.c        ****                 
 349:main.c        ****                 uint8_t ACK = 0xFF;
 350:main.c        ****                 
 351:main.c        ****                 DriveTimeCount++;
 352:main.c        ****                 if (DriveTimeCount > 100) //EDIT: was 100!
 353:main.c        ****                 {
 354:main.c        ****                     DriveTimeCount = 0; 
 355:main.c        ****                     ACK = getAckRx();
 356:main.c        ****                 }
 357:main.c        ****    
 358:main.c        ****                 uint8_t ABS_Motor_RPM = getABSMotorRPM();
 359:main.c        ****                 
 360:main.c        ****                 uint16_t Throttle_Total = 0x0;
 361:main.c        ****                 Throttle_Total |= getPedalHigh() << 8;
 362:main.c        ****                 Throttle_Total |= getPedalLow();
 363:main.c        ****                 Throttle_Total = (double)Throttle_Total * THROTTLE_MULTIPLIER;
 364:main.c        ****                 
 365:main.c        ****                 uint8_t Throttle_High = Throttle_Total >> 8;
 366:main.c        ****                 uint8_t Throttle_Low = Throttle_Total & 0x00FF;
 367:main.c        ****                 
 368:main.c        ****                 // send attenuated throttle and interlock to motor controller
 369:main.c        ****                 can_send_cmd(1, Throttle_High, Throttle_Low); // setInterlock 
 370:main.c        **** 
 371:main.c        ****                 // calcualte SOC
 372:main.c        ****                 if(CURRENT > 2500) {
 373:main.c        ****                     charge = SOC_LUT[(voltage - 93400) / 100] / 100;
 374:main.c        ****                 }
 375:main.c        ****                 
 376:main.c        ****                 // Display pack temp and soc on display
 377:main.c        ****                 GLCD_Clear_Frame();
 378:main.c        ****                 GLCD_DrawInt(0,0,PACK_TEMP,8);
 379:main.c        ****                 GLCD_DrawInt(120,0,charge,8);
 380:main.c        ****                 GLCD_Write_Frame();
 381:main.c        ****                 
 382:main.c        ****                 // check if everything is going well
 383:main.c        ****                 // if exiting drive improperly also send charge
 384:main.c        ****                 // probably kyle just turing the car off wrong
 385:main.c        ****                 if (!HV_Read()) {
 386:main.c        ****                     can_send_cmd(0, 0, 0);   
 387:main.c        ****                     can_send_charge(charge, 1); 
 388:main.c        ****                     state = LV;
 389:main.c        ****                 }
 390:main.c        ****                 // if exiting drive mode send SOC to BMS
 391:main.c        ****                 // likely that car is about to shut down
 392:main.c        ****                 if (!Drive_Read()) {
 393:main.c        ****                     state = HV_Enabled;
 394:main.c        ****                     can_send_cmd(1, 0, 0);
 395:main.c        ****                     can_send_charge(charge, 1);
 396:main.c        ****                 }
 397:main.c        ****                 if ((ACK != 0xFF) | 
 398:main.c        ****                     (!getCurtisHeartBeatCheck())) // TODO: Heart beat message is never cleared
ARM GAS  C:\Users\willy\AppData\Local\Temp\ccAHgQbi.s 			page 17


 399:main.c        ****                 {
 400:main.c        ****                     can_send_cmd(0, 0, 0);
 401:main.c        ****                     state = Fault;
 402:main.c        ****                     error_state = fromDrive;
 403:main.c        ****                     DriveTimeCount = 0;
 404:main.c        ****                     break;
 405:main.c        ****                 }
 406:main.c        ****                 
 407:main.c        ****                 previous_state = Drive;
 408:main.c        ****             break;
 409:main.c        ****                 
 410:main.c        **** 	        case Fault:
 411:main.c        ****                 
 412:main.c        ****                 CAN_GlobalIntEnable();
 413:main.c        ****                 CAN_Init();
 414:main.c        ****                 CAN_Start();
 415:main.c        ****                 //nodeCheckStart();
 416:main.c        ****                 
 417:main.c        ****                 can_send_status(state, error_state);
 418:main.c        ****                 
 419:main.c        ****                 //
 420:main.c        ****                 // RGB code goes here
 421:main.c        ****                 // flashing red
 422:main.c        ****                 LED_color(RED);
 423:main.c        ****                 CyDelay(1000);
 424:main.c        ****                 LED_color(OFF);
 425:main.c        ****                 CyDelay(1000);
 426:main.c        ****                 
 427:main.c        ****                 Buzzer_Write(0);
 428:main.c        ****                 
 429:main.c        ****                 GLCD_Clear_Frame();
 430:main.c        ****                 GLCD_DrawString(0,0,"FAULT",4);
 431:main.c        ****                 GLCD_DrawString(0,32,"ERROR:",4);
 432:main.c        ****                 GLCD_DrawInt(220,32,error_state,4);
 433:main.c        ****                 GLCD_Write_Frame();
 434:main.c        ****                 
 435:main.c        ****                 if(error_state == fromLV)
 436:main.c        ****                 {
 437:main.c        ****                     if(!Drive_Read())
 438:main.c        ****                     {
 439:main.c        ****                         state = LV;
 440:main.c        ****                         error_state = OK;
 424              		.loc 1 440 0
 425 0054 0025     		movs	r5, #0
 426              	.LVL77:
 439:main.c        ****                         error_state = OK;
 427              		.loc 1 439 0
 428 0056 0124     		movs	r4, #1
 429              	.LVL78:
 430 0058 0AE0     		b	.L24
 431              	.LVL79:
 432              	.L53:
 441:main.c        ****                     }
 442:main.c        ****                 }
 443:main.c        ****                 else if (error_state == fromPrecharging)
 444:main.c        ****                 {
 445:main.c        ****                     if(!Drive_Read() && !HV_Read())
ARM GAS  C:\Users\willy\AppData\Local\Temp\ccAHgQbi.s 			page 18


 446:main.c        ****                     {
 447:main.c        ****                         state = LV;
 448:main.c        ****                         error_state = OK;
 433              		.loc 1 448 0
 434 005a 0025     		movs	r5, #0
 435              	.LVL80:
 447:main.c        ****                         error_state = OK;
 436              		.loc 1 447 0
 437 005c 0124     		movs	r4, #1
 438              	.LVL81:
 439 005e 07E0     		b	.L24
 440              	.LVL82:
 441              	.L54:
 449:main.c        ****                     }
 450:main.c        ****                 }
 451:main.c        ****                 else if (error_state == fromHV_Enabled)
 452:main.c        ****                 {
 453:main.c        ****                     if(!Drive_Read())
 454:main.c        ****                     {
 455:main.c        ****                         state = HV_Enabled;
 456:main.c        ****                         error_state = OK;
 442              		.loc 1 456 0
 443 0060 0025     		movs	r5, #0
 444              	.LVL83:
 455:main.c        ****                         error_state = OK;
 445              		.loc 1 455 0
 446 0062 0324     		movs	r4, #3
 447              	.LVL84:
 448 0064 04E0     		b	.L24
 449              	.LVL85:
 450              	.L55:
 457:main.c        ****                     }
 458:main.c        ****                 }
 459:main.c        ****                 else if (error_state == fromDrive)
 460:main.c        ****                 {   
 461:main.c        ****                     can_send_cmd(1, Throttle_High, Throttle_Low); // setInterlock
 462:main.c        ****                     
 463:main.c        ****                     CyDelay(200);
 464:main.c        ****                     
 465:main.c        ****                     // Curtis Come back online again without error
 466:main.c        ****                     if((getCurtisHeartBeatCheck())) // EDIT: Removed !(Curtis_Fault_Check(data_queu
 467:main.c        ****                     {
 468:main.c        ****                         state = LV;
 469:main.c        ****                         error_state = OK;
 451              		.loc 1 469 0
 452 0066 0025     		movs	r5, #0
 453              	.LVL86:
 468:main.c        ****                         error_state = OK;
 454              		.loc 1 468 0
 455 0068 0124     		movs	r4, #1
 456              	.LVL87:
 457 006a 01E0     		b	.L24
 458              	.LVL88:
 459              	.L56:
 470:main.c        ****                     }
 471:main.c        ****                     else if(0xFF == getAckRx()) //ACK received
 472:main.c        ****                     {
ARM GAS  C:\Users\willy\AppData\Local\Temp\ccAHgQbi.s 			page 19


 473:main.c        ****                         state = HV_Enabled;
 474:main.c        ****                         error_state = OK;
 460              		.loc 1 474 0
 461 006c 0025     		movs	r5, #0
 462              	.LVL89:
 473:main.c        ****                         error_state = OK;
 463              		.loc 1 473 0
 464 006e 0324     		movs	r4, #3
 465              	.LVL90:
 466              	.L24:
 467              	.LBE3:
 155:main.c        ****         
 468              		.loc 1 155 0
 469 0070 0120     		movs	r0, #1
 470 0072 FFF7FEFF 		bl	LED_Write
 471              	.LVL91:
 158:main.c        ****         {
 472              		.loc 1 158 0
 473 0076 BC4B     		ldr	r3, .L58+4
 474 0078 1B68     		ldr	r3, [r3]
 475 007a 642B     		cmp	r3, #100
 476 007c 06D9     		bls	.L25
 160:main.c        ****             state = Fault;
 477              		.loc 1 160 0
 478 007e 0022     		movs	r2, #0
 479 0080 1146     		mov	r1, r2
 480 0082 1046     		mov	r0, r2
 481 0084 FFF7FEFF 		bl	can_send_cmd
 482              	.LVL92:
 162:main.c        ****         }
 483              		.loc 1 162 0
 484 0088 0625     		movs	r5, #6
 161:main.c        ****             error_state = nodeFailure;
 485              		.loc 1 161 0
 486 008a 0524     		movs	r4, #5
 487              	.LVL93:
 488              	.L25:
 165:main.c        ****         {    
 489              		.loc 1 165 0
 490 008c 052C     		cmp	r4, #5
 491 008e 00F2E081 		bhi	.L26
 492 0092 DFE814F0 		tbh	[pc, r4, lsl #1]
 493              	.L28:
 494 0096 0600     		.2byte	(.L27-.L28)/2
 495 0098 2800     		.2byte	(.L29-.L28)/2
 496 009a 6400     		.2byte	(.L30-.L28)/2
 497 009c 9600     		.2byte	(.L31-.L28)/2
 498 009e D400     		.2byte	(.L32-.L28)/2
 499 00a0 7901     		.2byte	(.L33-.L28)/2
 500              		.p2align 1
 501              	.L27:
 502              	.LBB6:
 169:main.c        ****                 GLCD_DrawString(0,0,"START",8);
 503              		.loc 1 169 0
 504 00a2 FFF7FEFF 		bl	GLCD_Clear_Frame
 505              	.LVL94:
 170:main.c        ****                 GLCD_Write_Frame();
ARM GAS  C:\Users\willy\AppData\Local\Temp\ccAHgQbi.s 			page 20


 506              		.loc 1 170 0
 507 00a6 0823     		movs	r3, #8
 508 00a8 B04A     		ldr	r2, .L58+8
 509 00aa 0021     		movs	r1, #0
 510 00ac 0846     		mov	r0, r1
 511 00ae FFF7FEFF 		bl	GLCD_DrawString
 512              	.LVL95:
 171:main.c        ****   
 513              		.loc 1 171 0
 514 00b2 FFF7FEFF 		bl	GLCD_Write_Frame
 515              	.LVL96:
 174:main.c        ****                 CAN_Init();
 516              		.loc 1 174 0
 517 00b6 FFF7FEFF 		bl	CAN_GlobalIntEnable
 518              	.LVL97:
 175:main.c        ****                 CAN_Start();
 519              		.loc 1 175 0
 520 00ba FFF7FEFF 		bl	CAN_Init
 521              	.LVL98:
 176:main.c        ****                 LED_color_wheel(200);
 522              		.loc 1 176 0
 523 00be FFF7FEFF 		bl	CAN_Start
 524              	.LVL99:
 177:main.c        ****                 
 525              		.loc 1 177 0
 526 00c2 C820     		movs	r0, #200
 527 00c4 FFF7FEFF 		bl	LED_color_wheel
 528              	.LVL100:
 179:main.c        **** 
 529              		.loc 1 179 0
 530 00c8 2946     		mov	r1, r5
 531 00ca 2046     		mov	r0, r4
 532 00cc FFF7FEFF 		bl	can_send_status
 533              	.LVL101:
 181:main.c        ****                 CyDelay(50);
 534              		.loc 1 181 0
 535 00d0 0120     		movs	r0, #1
 536 00d2 FFF7FEFF 		bl	Buzzer_Write
 537              	.LVL102:
 182:main.c        ****                 
 538              		.loc 1 182 0
 539 00d6 3220     		movs	r0, #50
 540 00d8 FFF7FEFF 		bl	CyDelay
 541              	.LVL103:
 184:main.c        ****                 
 542              		.loc 1 184 0
 543 00dc 0020     		movs	r0, #0
 544 00de FFF7FEFF 		bl	Buzzer_Write
 545              	.LVL104:
 186:main.c        ****                 
 546              		.loc 1 186 0
 547 00e2 0124     		movs	r4, #1
 188:main.c        ****                 
 548              		.loc 1 188 0
 549 00e4 C4E7     		b	.L24
 550              	.LVL105:
 551              	.L29:
ARM GAS  C:\Users\willy\AppData\Local\Temp\ccAHgQbi.s 			page 21


 191:main.c        ****                 GLCD_DrawString(0,0,"LV",8);
 552              		.loc 1 191 0
 553 00e6 FFF7FEFF 		bl	GLCD_Clear_Frame
 554              	.LVL106:
 192:main.c        ****                 GLCD_Write_Frame();
 555              		.loc 1 192 0
 556 00ea 0823     		movs	r3, #8
 557 00ec A04A     		ldr	r2, .L58+12
 558 00ee 0021     		movs	r1, #0
 559 00f0 0846     		mov	r0, r1
 560 00f2 FFF7FEFF 		bl	GLCD_DrawString
 561              	.LVL107:
 193:main.c        ****                 
 562              		.loc 1 193 0
 563 00f6 FFF7FEFF 		bl	GLCD_Write_Frame
 564              	.LVL108:
 195:main.c        ****                 CAN_Init();
 565              		.loc 1 195 0
 566 00fa FFF7FEFF 		bl	CAN_GlobalIntEnable
 567              	.LVL109:
 196:main.c        ****                 CAN_Start();
 568              		.loc 1 196 0
 569 00fe FFF7FEFF 		bl	CAN_Init
 570              	.LVL110:
 197:main.c        ****                 
 571              		.loc 1 197 0
 572 0102 FFF7FEFF 		bl	CAN_Start
 573              	.LVL111:
 199:main.c        ****                 //nodeCheckStart();
 574              		.loc 1 199 0
 575 0106 0022     		movs	r2, #0
 576 0108 1146     		mov	r1, r2
 577 010a 1046     		mov	r0, r2
 578 010c FFF7FEFF 		bl	can_send_cmd
 579              	.LVL112:
 202:main.c        **** 
 580              		.loc 1 202 0
 581 0110 2946     		mov	r1, r5
 582 0112 2046     		mov	r0, r4
 583 0114 FFF7FEFF 		bl	can_send_status
 584              	.LVL113:
 205:main.c        ****                 //hex2Display(charge);
 585              		.loc 1 205 0
 586 0118 9349     		ldr	r1, .L58+4
 587 011a 4B68     		ldr	r3, [r1, #4]
 588 011c A3F5B633 		sub	r3, r3, #93184
 589 0120 D83B     		subs	r3, r3, #216
 590 0122 944A     		ldr	r2, .L58+16
 591 0124 A2FB0303 		umull	r0, r3, r2, r3
 592 0128 5B09     		lsrs	r3, r3, #5
 593 012a 9348     		ldr	r0, .L58+20
 594 012c 50F82330 		ldr	r3, [r0, r3, lsl #2]
 595 0130 82FB0302 		smull	r0, r2, r2, r3
 596 0134 DB17     		asrs	r3, r3, #31
 597 0136 C3EB6213 		rsb	r3, r3, r2, asr #5
 598 013a 0B72     		strb	r3, [r1, #8]
 208:main.c        ****                 
ARM GAS  C:\Users\willy\AppData\Local\Temp\ccAHgQbi.s 			page 22


 599              		.loc 1 208 0
 600 013c 0020     		movs	r0, #0
 601 013e FFF7FEFF 		bl	Buzzer_Write
 602              	.LVL114:
 215:main.c        ****                 
 603              		.loc 1 215 0
 604 0142 0220     		movs	r0, #2
 605 0144 FFF7FEFF 		bl	LED_color
 606              	.LVL115:
 217:main.c        ****                 {
 607              		.loc 1 217 0
 608 0148 FFF7FEFF 		bl	Drive_Read
 609              	.LVL116:
 610 014c 0028     		cmp	r0, #0
 611 014e 7FF471AF 		bne	.L45
 224:main.c        ****                 {
 612              		.loc 1 224 0
 613 0152 FFF7FEFF 		bl	HV_Read
 614              	.LVL117:
 615 0156 0028     		cmp	r0, #0
 616 0158 7FF46FAF 		bne	.L46
 617 015c 88E7     		b	.L24
 618              	.L30:
 233:main.c        ****                 GLCD_DrawString(0,0,"PRCHGE",8);
 619              		.loc 1 233 0
 620 015e FFF7FEFF 		bl	GLCD_Clear_Frame
 621              	.LVL118:
 234:main.c        ****                 GLCD_Write_Frame();
 622              		.loc 1 234 0
 623 0162 0823     		movs	r3, #8
 624 0164 854A     		ldr	r2, .L58+24
 625 0166 0021     		movs	r1, #0
 626 0168 0846     		mov	r0, r1
 627 016a FFF7FEFF 		bl	GLCD_DrawString
 628              	.LVL119:
 235:main.c        ****                 
 629              		.loc 1 235 0
 630 016e FFF7FEFF 		bl	GLCD_Write_Frame
 631              	.LVL120:
 237:main.c        ****                 CAN_Init();
 632              		.loc 1 237 0
 633 0172 FFF7FEFF 		bl	CAN_GlobalIntEnable
 634              	.LVL121:
 238:main.c        ****                 CAN_Start();
 635              		.loc 1 238 0
 636 0176 FFF7FEFF 		bl	CAN_Init
 637              	.LVL122:
 239:main.c        ****                 //nodeCheckStart();
 638              		.loc 1 239 0
 639 017a FFF7FEFF 		bl	CAN_Start
 640              	.LVL123:
 242:main.c        ****                 
 641              		.loc 1 242 0
 642 017e 2946     		mov	r1, r5
 643 0180 2046     		mov	r0, r4
 644 0182 FFF7FEFF 		bl	can_send_status
 645              	.LVL124:
ARM GAS  C:\Users\willy\AppData\Local\Temp\ccAHgQbi.s 			page 23


 244:main.c        ****                 Buzzer_Write(0);
 646              		.loc 1 244 0
 647 0186 0620     		movs	r0, #6
 648 0188 FFF7FEFF 		bl	LED_color
 649              	.LVL125:
 245:main.c        ****                 
 650              		.loc 1 245 0
 651 018c 0020     		movs	r0, #0
 652 018e FFF7FEFF 		bl	Buzzer_Write
 653              	.LVL126:
 247:main.c        ****                 
 654              		.loc 1 247 0
 655 0192 0023     		movs	r3, #0
 656 0194 0193     		str	r3, [sp, #4]
 657              	.L35:
 658              	.LBB5:
 251:main.c        ****                 
 659              		.loc 1 251 0
 660 0196 0022     		movs	r2, #0
 661 0198 1146     		mov	r1, r2
 662 019a 0120     		movs	r0, #1
 663 019c FFF7FEFF 		bl	can_send_cmd
 664              	.LVL127:
 253:main.c        ****                    
 665              		.loc 1 253 0
 666 01a0 FFF7FEFF 		bl	getCapacitorVoltage
 667              	.LVL128:
 255:main.c        ****                     {
 668              		.loc 1 255 0
 669 01a4 1528     		cmp	r0, #21
 670 01a6 3FF64AAF 		bhi	.L47
 262:main.c        ****                 
 671              		.loc 1 262 0
 672 01aa 019B     		ldr	r3, [sp, #4]
 673 01ac 0133     		adds	r3, r3, #1
 674 01ae 0193     		str	r3, [sp, #4]
 264:main.c        ****                     {
 675              		.loc 1 264 0
 676 01b0 019B     		ldr	r3, [sp, #4]
 677 01b2 0A2B     		cmp	r3, #10
 678 01b4 3FF445AF 		beq	.L48
 271:main.c        ****                 }    
 679              		.loc 1 271 0
 680 01b8 4FF47A70 		mov	r0, #1000
 681              	.LVL129:
 682 01bc FFF7FEFF 		bl	CyDelay
 683              	.LVL130:
 684              	.LBE5:
 272:main.c        ****                 
 685              		.loc 1 272 0
 686 01c0 E9E7     		b	.L35
 687              	.L31:
 277:main.c        ****                 GLCD_DrawString(0,0,"HV",8);
 688              		.loc 1 277 0
 689 01c2 FFF7FEFF 		bl	GLCD_Clear_Frame
 690              	.LVL131:
 278:main.c        ****                 GLCD_Write_Frame();
ARM GAS  C:\Users\willy\AppData\Local\Temp\ccAHgQbi.s 			page 24


 691              		.loc 1 278 0
 692 01c6 0823     		movs	r3, #8
 693 01c8 6D4A     		ldr	r2, .L58+28
 694 01ca 0021     		movs	r1, #0
 695 01cc 0846     		mov	r0, r1
 696 01ce FFF7FEFF 		bl	GLCD_DrawString
 697              	.LVL132:
 279:main.c        **** 
 698              		.loc 1 279 0
 699 01d2 FFF7FEFF 		bl	GLCD_Write_Frame
 700              	.LVL133:
 281:main.c        ****                 CAN_Init();
 701              		.loc 1 281 0
 702 01d6 FFF7FEFF 		bl	CAN_GlobalIntEnable
 703              	.LVL134:
 282:main.c        ****                 CAN_Start();
 704              		.loc 1 282 0
 705 01da FFF7FEFF 		bl	CAN_Init
 706              	.LVL135:
 283:main.c        ****                 
 707              		.loc 1 283 0
 708 01de FFF7FEFF 		bl	CAN_Start
 709              	.LVL136:
 287:main.c        ****                 
 710              		.loc 1 287 0
 711 01e2 2946     		mov	r1, r5
 712 01e4 2046     		mov	r0, r4
 713 01e6 FFF7FEFF 		bl	can_send_status
 714              	.LVL137:
 292:main.c        ****                 
 715              		.loc 1 292 0
 716 01ea 0520     		movs	r0, #5
 717 01ec FFF7FEFF 		bl	LED_color
 718              	.LVL138:
 301:main.c        ****                 
 719              		.loc 1 301 0
 720 01f0 0020     		movs	r0, #0
 721 01f2 FFF7FEFF 		bl	Buzzer_Write
 722              	.LVL139:
 306:main.c        ****                 {
 723              		.loc 1 306 0
 724 01f6 FFF7FEFF 		bl	Drive_Read
 725              	.LVL140:
 726 01fa A0B1     		cbz	r0, .L36
 308:main.c        ****                     if(getErrorTolerance() == 0) // 100 for error tolerance /// needs to be getErro
 727              		.loc 1 308 0
 728 01fc 4FF47A70 		mov	r0, #1000
 729 0200 FFF7FEFF 		bl	CyDelay
 730              	.LVL141:
 309:main.c        ****                     {
 731              		.loc 1 309 0
 732 0204 FFF7FEFF 		bl	getErrorTolerance
 733              	.LVL142:
 734 0208 0028     		cmp	r0, #0
 735 020a 7FF41DAF 		bne	.L49
 311:main.c        ****                         CyDelay(1000);
 736              		.loc 1 311 0
ARM GAS  C:\Users\willy\AppData\Local\Temp\ccAHgQbi.s 			page 25


 737 020e 0120     		movs	r0, #1
 738 0210 FFF7FEFF 		bl	Buzzer_Write
 739              	.LVL143:
 312:main.c        ****                         Buzzer_Write(0);
 740              		.loc 1 312 0
 741 0214 4FF47A70 		mov	r0, #1000
 742 0218 FFF7FEFF 		bl	CyDelay
 743              	.LVL144:
 313:main.c        ****                         state = Drive;
 744              		.loc 1 313 0
 745 021c 0020     		movs	r0, #0
 746 021e FFF7FEFF 		bl	Buzzer_Write
 747              	.LVL145:
 314:main.c        ****                         break;
 748              		.loc 1 314 0
 749 0222 0424     		movs	r4, #4
 315:main.c        ****                     }
 750              		.loc 1 315 0
 751 0224 24E7     		b	.L24
 752              	.LVL146:
 753              	.L36:
 326:main.c        ****                 {
 754              		.loc 1 326 0
 755 0226 FFF7FEFF 		bl	HV_Read
 756              	.LVL147:
 757 022a 8146     		mov	r9, r0
 758 022c FFF7FEFF 		bl	getCapacitorVoltage
 759              	.LVL148:
 760 0230 B9F1000F 		cmp	r9, #0
 761 0234 18BF     		it	ne
 762 0236 1528     		cmpne	r0, #21
 763 0238 7FF609AF 		bls	.L50
 764 023c 18E7     		b	.L24
 765              	.L32:
 340:main.c        ****                 
 766              		.loc 1 340 0
 767 023e 0021     		movs	r1, #0
 768 0240 494B     		ldr	r3, .L58+4
 769 0242 187A     		ldrb	r0, [r3, #8]	@ zero_extendqisi2
 770 0244 FFF7FEFF 		bl	can_send_charge
 771              	.LVL149:
 342:main.c        ****                 //
 772              		.loc 1 342 0
 773 0248 2946     		mov	r1, r5
 774 024a 2046     		mov	r0, r4
 775 024c FFF7FEFF 		bl	can_send_status
 776              	.LVL150:
 346:main.c        ****                 
 777              		.loc 1 346 0
 778 0250 0320     		movs	r0, #3
 779 0252 FFF7FEFF 		bl	LED_color
 780              	.LVL151:
 351:main.c        ****                 if (DriveTimeCount > 100) //EDIT: was 100!
 781              		.loc 1 351 0
 782 0256 0137     		adds	r7, r7, #1
 783              	.LVL152:
 352:main.c        ****                 {
ARM GAS  C:\Users\willy\AppData\Local\Temp\ccAHgQbi.s 			page 26


 784              		.loc 1 352 0
 785 0258 642F     		cmp	r7, #100
 786 025a 04D9     		bls	.L51
 787              	.LVL153:
 355:main.c        ****                 }
 788              		.loc 1 355 0
 789 025c FFF7FEFF 		bl	getAckRx
 790              	.LVL154:
 791 0260 8146     		mov	r9, r0
 792              	.LVL155:
 354:main.c        ****                     ACK = getAckRx();
 793              		.loc 1 354 0
 794 0262 0027     		movs	r7, #0
 795 0264 01E0     		b	.L37
 796              	.LVL156:
 797              	.L51:
 349:main.c        ****                 
 798              		.loc 1 349 0
 799 0266 4FF0FF09 		mov	r9, #255
 800              	.LVL157:
 801              	.L37:
 358:main.c        ****                 
 802              		.loc 1 358 0
 803 026a FFF7FEFF 		bl	getABSMotorRPM
 804              	.LVL158:
 361:main.c        ****                 Throttle_Total |= getPedalLow();
 805              		.loc 1 361 0
 806 026e FFF7FEFF 		bl	getPedalHigh
 807              	.LVL159:
 808 0272 0002     		lsls	r0, r0, #8
 809 0274 86B2     		uxth	r6, r0
 810              	.LVL160:
 362:main.c        ****                 Throttle_Total = (double)Throttle_Total * THROTTLE_MULTIPLIER;
 811              		.loc 1 362 0
 812 0276 FFF7FEFF 		bl	getPedalLow
 813              	.LVL161:
 814 027a 3043     		orrs	r0, r0, r6
 815              	.LVL162:
 363:main.c        ****                 
 816              		.loc 1 363 0
 817 027c 80B2     		uxth	r0, r0
 818 027e FFF7FEFF 		bl	__aeabi_ui2d
 819              	.LVL163:
 820 0282 404B     		ldr	r3, .L58+32
 821 0284 D3E90023 		ldrd	r2, [r3]
 822 0288 FFF7FEFF 		bl	__aeabi_dmul
 823              	.LVL164:
 824 028c FFF7FEFF 		bl	__aeabi_d2uiz
 825              	.LVL165:
 826 0290 80B2     		uxth	r0, r0
 827              	.LVL166:
 365:main.c        ****                 uint8_t Throttle_Low = Throttle_Total & 0x00FF;
 828              		.loc 1 365 0
 829 0292 010A     		lsrs	r1, r0, #8
 830 0294 5FFA81F8 		uxtb	r8, r1
 831              	.LVL167:
 366:main.c        ****                 
ARM GAS  C:\Users\willy\AppData\Local\Temp\ccAHgQbi.s 			page 27


 832              		.loc 1 366 0
 833 0298 C6B2     		uxtb	r6, r0
 834              	.LVL168:
 369:main.c        **** 
 835              		.loc 1 369 0
 836 029a 3246     		mov	r2, r6
 837 029c 0120     		movs	r0, #1
 838              	.LVL169:
 839 029e FFF7FEFF 		bl	can_send_cmd
 840              	.LVL170:
 372:main.c        ****                     charge = SOC_LUT[(voltage - 93400) / 100] / 100;
 841              		.loc 1 372 0
 842 02a2 314B     		ldr	r3, .L58+4
 843 02a4 DA68     		ldr	r2, [r3, #12]
 844 02a6 40F6C413 		movw	r3, #2500
 845 02aa 9A42     		cmp	r2, r3
 846 02ac 11DD     		ble	.L38
 373:main.c        ****                 }
 847              		.loc 1 373 0
 848 02ae 2E4A     		ldr	r2, .L58+4
 849 02b0 5368     		ldr	r3, [r2, #4]
 850 02b2 A3F5B633 		sub	r3, r3, #93184
 851 02b6 D83B     		subs	r3, r3, #216
 852 02b8 2E49     		ldr	r1, .L58+16
 853 02ba A1FB0303 		umull	r0, r3, r1, r3
 854 02be 5B09     		lsrs	r3, r3, #5
 855 02c0 2D48     		ldr	r0, .L58+20
 856 02c2 50F82330 		ldr	r3, [r0, r3, lsl #2]
 857 02c6 81FB0301 		smull	r0, r1, r1, r3
 858 02ca DB17     		asrs	r3, r3, #31
 859 02cc C3EB6113 		rsb	r3, r3, r1, asr #5
 860 02d0 1372     		strb	r3, [r2, #8]
 861              	.L38:
 377:main.c        ****                 GLCD_DrawInt(0,0,PACK_TEMP,8);
 862              		.loc 1 377 0
 863 02d2 FFF7FEFF 		bl	GLCD_Clear_Frame
 864              	.LVL171:
 378:main.c        ****                 GLCD_DrawInt(120,0,charge,8);
 865              		.loc 1 378 0
 866 02d6 DFF890A0 		ldr	r10, .L58+4
 867 02da 9AF81020 		ldrb	r2, [r10, #16]	@ zero_extendqisi2
 868 02de 0823     		movs	r3, #8
 869 02e0 0021     		movs	r1, #0
 870 02e2 0846     		mov	r0, r1
 871 02e4 FFF7FEFF 		bl	GLCD_DrawInt
 872              	.LVL172:
 379:main.c        ****                 GLCD_Write_Frame();
 873              		.loc 1 379 0
 874 02e8 0823     		movs	r3, #8
 875 02ea 9AF80820 		ldrb	r2, [r10, #8]	@ zero_extendqisi2
 876 02ee 0021     		movs	r1, #0
 877 02f0 7820     		movs	r0, #120
 878 02f2 FFF7FEFF 		bl	GLCD_DrawInt
 879              	.LVL173:
 380:main.c        ****                 
 880              		.loc 1 380 0
 881 02f6 FFF7FEFF 		bl	GLCD_Write_Frame
ARM GAS  C:\Users\willy\AppData\Local\Temp\ccAHgQbi.s 			page 28


 882              	.LVL174:
 385:main.c        ****                     can_send_cmd(0, 0, 0);   
 883              		.loc 1 385 0
 884 02fa FFF7FEFF 		bl	HV_Read
 885              	.LVL175:
 886 02fe 50B9     		cbnz	r0, .L39
 386:main.c        ****                     can_send_charge(charge, 1); 
 887              		.loc 1 386 0
 888 0300 0022     		movs	r2, #0
 889 0302 1146     		mov	r1, r2
 890 0304 1046     		mov	r0, r2
 891 0306 FFF7FEFF 		bl	can_send_cmd
 892              	.LVL176:
 387:main.c        ****                     state = LV;
 893              		.loc 1 387 0
 894 030a 0121     		movs	r1, #1
 895 030c 9AF80800 		ldrb	r0, [r10, #8]	@ zero_extendqisi2
 896 0310 FFF7FEFF 		bl	can_send_charge
 897              	.LVL177:
 388:main.c        ****                 }
 898              		.loc 1 388 0
 899 0314 0124     		movs	r4, #1
 900              	.LVL178:
 901              	.L39:
 392:main.c        ****                     state = HV_Enabled;
 902              		.loc 1 392 0
 903 0316 FFF7FEFF 		bl	Drive_Read
 904              	.LVL179:
 905 031a 50B9     		cbnz	r0, .L40
 906              	.LVL180:
 394:main.c        ****                     can_send_charge(charge, 1);
 907              		.loc 1 394 0
 908 031c 0022     		movs	r2, #0
 909 031e 1146     		mov	r1, r2
 910 0320 0120     		movs	r0, #1
 911 0322 FFF7FEFF 		bl	can_send_cmd
 912              	.LVL181:
 395:main.c        ****                 }
 913              		.loc 1 395 0
 914 0326 0121     		movs	r1, #1
 915 0328 0F4B     		ldr	r3, .L58+4
 916 032a 187A     		ldrb	r0, [r3, #8]	@ zero_extendqisi2
 917 032c FFF7FEFF 		bl	can_send_charge
 918              	.LVL182:
 393:main.c        ****                     can_send_cmd(1, 0, 0);
 919              		.loc 1 393 0
 920 0330 0324     		movs	r4, #3
 921              	.LVL183:
 922              	.L40:
 398:main.c        ****                 {
 923              		.loc 1 398 0
 924 0332 FFF7FEFF 		bl	getCurtisHeartBeatCheck
 925              	.LVL184:
 397:main.c        ****                     (!getCurtisHeartBeatCheck())) // TODO: Heart beat message is never cleared
 926              		.loc 1 397 0
 927 0336 B0FA80F0 		clz	r0, r0
 928 033a 4009     		lsrs	r0, r0, #5
ARM GAS  C:\Users\willy\AppData\Local\Temp\ccAHgQbi.s 			page 29


 929 033c B9F1FF0F 		cmp	r9, #255
 930 0340 18BF     		it	ne
 931 0342 40F00100 		orrne	r0, r0, #1
 932 0346 40B1     		cbz	r0, .L41
 400:main.c        ****                     state = Fault;
 933              		.loc 1 400 0
 934 0348 0022     		movs	r2, #0
 935 034a 1146     		mov	r1, r2
 936 034c 1046     		mov	r0, r2
 937 034e FFF7FEFF 		bl	can_send_cmd
 938              	.LVL185:
 403:main.c        ****                     break;
 939              		.loc 1 403 0
 940 0352 0027     		movs	r7, #0
 402:main.c        ****                     DriveTimeCount = 0;
 941              		.loc 1 402 0
 942 0354 0425     		movs	r5, #4
 401:main.c        ****                     error_state = fromDrive;
 943              		.loc 1 401 0
 944 0356 0524     		movs	r4, #5
 404:main.c        ****                 }
 945              		.loc 1 404 0
 946 0358 8AE6     		b	.L24
 947              	.LVL186:
 948              	.L41:
 407:main.c        ****             break;
 949              		.loc 1 407 0
 950 035a 0422     		movs	r2, #4
 951 035c 064B     		ldr	r3, .L58+20
 952 035e C3F8C823 		str	r2, [r3, #968]
 408:main.c        ****                 
 953              		.loc 1 408 0
 954 0362 85E6     		b	.L24
 955              	.L59:
 956              		.align	2
 957              	.L58:
 958 0364 00000000 		.word	ISR_WDT
 959 0368 00000000 		.word	.LANCHOR0
 960 036c 00000000 		.word	.LC0
 961 0370 08000000 		.word	.LC1
 962 0374 1F85EB51 		.word	1374389535
 963 0378 00000000 		.word	.LANCHOR1
 964 037c 0C000000 		.word	.LC2
 965 0380 14000000 		.word	.LC3
 966 0384 C0030000 		.word	.LANCHOR1+960
 967              	.LVL187:
 968              	.L33:
 412:main.c        ****                 CAN_Init();
 969              		.loc 1 412 0
 970 0388 FFF7FEFF 		bl	CAN_GlobalIntEnable
 971              	.LVL188:
 413:main.c        ****                 CAN_Start();
 972              		.loc 1 413 0
 973 038c FFF7FEFF 		bl	CAN_Init
 974              	.LVL189:
 414:main.c        ****                 //nodeCheckStart();
 975              		.loc 1 414 0
ARM GAS  C:\Users\willy\AppData\Local\Temp\ccAHgQbi.s 			page 30


 976 0390 FFF7FEFF 		bl	CAN_Start
 977              	.LVL190:
 417:main.c        ****                 
 978              		.loc 1 417 0
 979 0394 2946     		mov	r1, r5
 980 0396 2046     		mov	r0, r4
 981 0398 FFF7FEFF 		bl	can_send_status
 982              	.LVL191:
 422:main.c        ****                 CyDelay(1000);
 983              		.loc 1 422 0
 984 039c 0120     		movs	r0, #1
 985 039e FFF7FEFF 		bl	LED_color
 986              	.LVL192:
 423:main.c        ****                 LED_color(OFF);
 987              		.loc 1 423 0
 988 03a2 4FF47A70 		mov	r0, #1000
 989 03a6 FFF7FEFF 		bl	CyDelay
 990              	.LVL193:
 424:main.c        ****                 CyDelay(1000);
 991              		.loc 1 424 0
 992 03aa 0720     		movs	r0, #7
 993 03ac FFF7FEFF 		bl	LED_color
 994              	.LVL194:
 425:main.c        ****                 
 995              		.loc 1 425 0
 996 03b0 4FF47A70 		mov	r0, #1000
 997 03b4 FFF7FEFF 		bl	CyDelay
 998              	.LVL195:
 427:main.c        ****                 
 999              		.loc 1 427 0
 1000 03b8 0020     		movs	r0, #0
 1001 03ba FFF7FEFF 		bl	Buzzer_Write
 1002              	.LVL196:
 429:main.c        ****                 GLCD_DrawString(0,0,"FAULT",4);
 1003              		.loc 1 429 0
 1004 03be FFF7FEFF 		bl	GLCD_Clear_Frame
 1005              	.LVL197:
 430:main.c        ****                 GLCD_DrawString(0,32,"ERROR:",4);
 1006              		.loc 1 430 0
 1007 03c2 0423     		movs	r3, #4
 1008 03c4 284A     		ldr	r2, .L60
 1009 03c6 0021     		movs	r1, #0
 1010 03c8 0846     		mov	r0, r1
 1011 03ca FFF7FEFF 		bl	GLCD_DrawString
 1012              	.LVL198:
 431:main.c        ****                 GLCD_DrawInt(220,32,error_state,4);
 1013              		.loc 1 431 0
 1014 03ce 0423     		movs	r3, #4
 1015 03d0 264A     		ldr	r2, .L60+4
 1016 03d2 2021     		movs	r1, #32
 1017 03d4 0020     		movs	r0, #0
 1018 03d6 FFF7FEFF 		bl	GLCD_DrawString
 1019              	.LVL199:
 432:main.c        ****                 GLCD_Write_Frame();
 1020              		.loc 1 432 0
 1021 03da 0423     		movs	r3, #4
 1022 03dc 2A46     		mov	r2, r5
ARM GAS  C:\Users\willy\AppData\Local\Temp\ccAHgQbi.s 			page 31


 1023 03de 2021     		movs	r1, #32
 1024 03e0 DC20     		movs	r0, #220
 1025 03e2 FFF7FEFF 		bl	GLCD_DrawInt
 1026              	.LVL200:
 433:main.c        ****                 
 1027              		.loc 1 433 0
 1028 03e6 FFF7FEFF 		bl	GLCD_Write_Frame
 1029              	.LVL201:
 435:main.c        ****                 {
 1030              		.loc 1 435 0
 1031 03ea 012D     		cmp	r5, #1
 1032 03ec 05D1     		bne	.L42
 437:main.c        ****                     {
 1033              		.loc 1 437 0
 1034 03ee FFF7FEFF 		bl	Drive_Read
 1035              	.LVL202:
 1036 03f2 0028     		cmp	r0, #0
 1037 03f4 3FF42EAE 		beq	.L52
 1038 03f8 3AE6     		b	.L24
 1039              	.L42:
 443:main.c        ****                 {
 1040              		.loc 1 443 0
 1041 03fa 022D     		cmp	r5, #2
 1042 03fc 0AD1     		bne	.L43
 445:main.c        ****                     {
 1043              		.loc 1 445 0
 1044 03fe FFF7FEFF 		bl	Drive_Read
 1045              	.LVL203:
 1046 0402 0028     		cmp	r0, #0
 1047 0404 7FF434AE 		bne	.L24
 445:main.c        ****                     {
 1048              		.loc 1 445 0 is_stmt 0 discriminator 1
 1049 0408 FFF7FEFF 		bl	HV_Read
 1050              	.LVL204:
 1051 040c 0028     		cmp	r0, #0
 1052 040e 3FF424AE 		beq	.L53
 1053 0412 2DE6     		b	.L24
 1054              	.L43:
 451:main.c        ****                 {
 1055              		.loc 1 451 0 is_stmt 1
 1056 0414 032D     		cmp	r5, #3
 1057 0416 05D1     		bne	.L44
 453:main.c        ****                     {
 1058              		.loc 1 453 0
 1059 0418 FFF7FEFF 		bl	Drive_Read
 1060              	.LVL205:
 1061 041c 0028     		cmp	r0, #0
 1062 041e 3FF41FAE 		beq	.L54
 1063 0422 25E6     		b	.L24
 1064              	.L44:
 459:main.c        ****                 {   
 1065              		.loc 1 459 0
 1066 0424 042D     		cmp	r5, #4
 1067 0426 7FF423AE 		bne	.L24
 461:main.c        ****                     
 1068              		.loc 1 461 0
 1069 042a B2B2     		uxth	r2, r6
ARM GAS  C:\Users\willy\AppData\Local\Temp\ccAHgQbi.s 			page 32


 1070 042c 1FFA88F1 		uxth	r1, r8
 1071 0430 0120     		movs	r0, #1
 1072 0432 FFF7FEFF 		bl	can_send_cmd
 1073              	.LVL206:
 463:main.c        ****                     
 1074              		.loc 1 463 0
 1075 0436 C820     		movs	r0, #200
 1076 0438 FFF7FEFF 		bl	CyDelay
 1077              	.LVL207:
 466:main.c        ****                     {
 1078              		.loc 1 466 0
 1079 043c FFF7FEFF 		bl	getCurtisHeartBeatCheck
 1080              	.LVL208:
 1081 0440 0028     		cmp	r0, #0
 1082 0442 7FF410AE 		bne	.L55
 471:main.c        ****                     {
 1083              		.loc 1 471 0
 1084 0446 FFF7FEFF 		bl	getAckRx
 1085              	.LVL209:
 1086 044a FF28     		cmp	r0, #255
 1087 044c 7FF410AE 		bne	.L24
 1088 0450 0CE6     		b	.L56
 1089              	.L26:
 475:main.c        ****                     }                   
 476:main.c        ****                 }
 477:main.c        ****                 else if (error_state == nodeFailure)
 478:main.c        ****                 {
 479:main.c        ****                     state = Fault;
 480:main.c        ****                 }
 481:main.c        ****             break;
 482:main.c        ****                 
 483:main.c        ****             default:
 484:main.c        ****                 RGB3_1_Write(1);
 1090              		.loc 1 484 0
 1091 0452 0120     		movs	r0, #1
 1092 0454 FFF7FEFF 		bl	RGB3_1_Write
 1093              	.LVL210:
 485:main.c        ****                 RGB2_1_Write(1);
 1094              		.loc 1 485 0
 1095 0458 0120     		movs	r0, #1
 1096 045a FFF7FEFF 		bl	RGB2_1_Write
 1097              	.LVL211:
 486:main.c        ****                 RGB1_1_Write(1);
 1098              		.loc 1 486 0
 1099 045e 0120     		movs	r0, #1
 1100 0460 FFF7FEFF 		bl	RGB1_1_Write
 1101              	.LVL212:
 1102 0464 04E6     		b	.L24
 1103              	.L61:
 1104 0466 00BF     		.align	2
 1105              	.L60:
 1106 0468 18000000 		.word	.LC4
 1107 046c 20000000 		.word	.LC5
 1108              	.LBE6:
 1109              		.cfi_endproc
 1110              	.LFE68:
 1111              		.size	main, .-main
ARM GAS  C:\Users\willy\AppData\Local\Temp\ccAHgQbi.s 			page 33


 1112              		.section	.text.ISR_CAN,"ax",%progbits
 1113              		.align	2
 1114              		.global	ISR_CAN
 1115              		.thumb
 1116              		.thumb_func
 1117              		.type	ISR_CAN, %function
 1118              	ISR_CAN:
 1119              	.LFB69:
 487:main.c        ****                 /*
 488:main.c        ****                 RGB3_2_Write(1);
 489:main.c        ****                 RGB2_2_Write(1);
 490:main.c        ****                 RGB1_2_Write(1);
 491:main.c        ****                 */
 492:main.c        ****         }// end of switch
 493:main.c        ****         
 494:main.c        ****         
 495:main.c        ****         //if (receiveMailboxNumber == CAN_RX_MAILBOX_switchStatus)
 496:main.c        ****         //{
 497:main.c        ****             //LCD_Position(1u, 3u);
 498:main.c        ****             //send
 499:main.c        ****             //if (CAN_RX_DATA_BYTE1(CAN_RX_MAILBOX_switchStatus) == SWITCH_PRESSED)
 500:main.c        ****             //{
 501:main.c        ****                 /* Display received switch status on LCD */
 502:main.c        ****             
 503:main.c        ****                 //LCD_PrintString("pressed ");
 504:main.c        **** 
 505:main.c        ****                 /* Increase the PWM pulse width */
 506:main.c        ****                 //pulseWidthValue += PWM_PULSE_WIDTH_STEP;
 507:main.c        **** 
 508:main.c        ****                 /* Send message with the new PWM pulse width */
 509:main.c        ****                 //dataPWM.byte[0u] = pulseWidthValue;
 510:main.c        ****                 //CAN_SendMsg(&messagePWM);
 511:main.c        **** 
 512:main.c        ****                 /* Display value of PWM pulse width on LCD */
 513:main.c        ****                 //LCD_Position(0u, 14u);
 514:main.c        ****                 //LCD_PrintInt8(pulseWidthValue);
 515:main.c        **** 
 516:main.c        ****             //}
 517:main.c        ****             //else
 518:main.c        ****             //{
 519:main.c        ****                 /* Display received switch status on LCD */
 520:main.c        ****             //    LCD_PrintString("released");
 521:main.c        ****             //}
 522:main.c        ****             //receiveMailboxNumber = 0xFFu;
 523:main.c        ****         //}
 524:main.c        ****         
 525:main.c        ****         //received
 526:main.c        **** 
 527:main.c        ****         //if (receiveMailboxNumber == CAN_RX_MAILBOX_ADCdata)
 528:main.c        ****         //{
 529:main.c        ****         //    adcData = ((uint16) ((uint16) CAN_RX_DATA_BYTE1(CAN_RX_MAILBOX_ADCdata) << ONE_BYTE_O
 530:main.c        ****         //    CAN_RX_DATA_BYTE2(CAN_RX_MAILBOX_ADCdata);
 531:main.c        ****             
 532:main.c        ****             /* Display received ADC data on LCD */
 533:main.c        ****        //     sprintf(txData, "%u.%.3u", (adcData / 1000u), (adcData % 1000u));
 534:main.c        ****         //    txData[DATA_SIZE - 1u] = (char8) '\0';
 535:main.c        ****             
ARM GAS  C:\Users\willy\AppData\Local\Temp\ccAHgQbi.s 			page 34


 536:main.c        ****         //    LCD_Position(0u, 4u);
 537:main.c        ****          //   LCD_PrintString(txData);
 538:main.c        ****          //   receiveMailboxNumber = 0xFFu;
 539:main.c        ****         //}
 540:main.c        ****     } 
 541:main.c        **** }
 542:main.c        **** 
 543:main.c        **** /*
 544:main.c        **** // 0 for HV, 1 for Drive
 545:main.c        **** static uint32 ReadSwSwitch(uint8_t choice)
 546:main.c        **** {
 547:main.c        ****     uint32 heldDown;
 548:main.c        ****     uint32 swStatus;
 549:main.c        **** 
 550:main.c        ****     swStatus = 0u;  // Switch is not active 
 551:main.c        ****     heldDown = 0u;  // Reset debounce counter
 552:main.c        **** 
 553:main.c        ****     
 554:main.c        ****     if (choice)
 555:main.c        ****         swStatus = Drive_Read();
 556:main.c        ****     else
 557:main.c        ****         swStatus = HV_Read();
 558:main.c        **** 
 559:main.c        ****     return (swStatus);
 560:main.c        **** }
 561:main.c        **** */
 562:main.c        **** /*******************************************************************************
 563:main.c        **** * Function Name: ISR_CAN
 564:main.c        **** ********************************************************************************
 565:main.c        **** *
 566:main.c        **** * Summary:
 567:main.c        **** *  This ISR is executed at a Receive Message event and set receiveMailboxNumber
 568:main.c        **** *  global variable with receive message mailbox number.
 569:main.c        **** *
 570:main.c        **** * Parameters:
 571:main.c        **** *  None.
 572:main.c        **** *
 573:main.c        **** * Return:
 574:main.c        **** *  None.
 575:main.c        **** *
 576:main.c        **** *******************************************************************************/
 577:main.c        **** CY_ISR(ISR_CAN)
 578:main.c        **** {   
 1120              		.loc 1 578 0
 1121              		.cfi_startproc
 1122              		@ args = 0, pretend = 0, frame = 0
 1123              		@ frame_needed = 0, uses_anonymous_args = 0
 1124              		@ link register save eliminated.
 579:main.c        ****     /* Clear Receive Message flag */
 580:main.c        ****     CAN_INT_SR_REG.byte[1u] = CAN_RX_MESSAGE_MASK;
 1125              		.loc 1 580 0
 1126 0000 1022     		movs	r2, #16
 1127 0002 044B     		ldr	r3, .L63
 1128 0004 5A70     		strb	r2, [r3, #1]
 581:main.c        **** 
 582:main.c        ****     /* Set the isrFlag */
 583:main.c        ****     //isrFlag = 1u;    
ARM GAS  C:\Users\willy\AppData\Local\Temp\ccAHgQbi.s 			page 35


 584:main.c        **** 
 585:main.c        ****     /* Acknowledges receipt of new message */
 586:main.c        ****     CAN_RX_ACK_MESSAGE(CAN_RX_MAILBOX_0);
 1129              		.loc 1 586 0
 1130 0006 044A     		ldr	r2, .L63+4
 1131 0008 1378     		ldrb	r3, [r2]	@ zero_extendqisi2
 1132 000a 43F00103 		orr	r3, r3, #1
 1133 000e 1370     		strb	r3, [r2]
 1134 0010 7047     		bx	lr
 1135              	.L64:
 1136 0012 00BF     		.align	2
 1137              	.L63:
 1138 0014 00A00040 		.word	1073782784
 1139 0018 A0A00040 		.word	1073782944
 1140              		.cfi_endproc
 1141              	.LFE69:
 1142              		.size	ISR_CAN, .-ISR_CAN
 1143              		.global	previous_state
 1144              		.global	pedalOK
 1145              		.global	DriveSwitch
 1146              		.global	HVSwitch
 1147              		.global	curr_voltage
 1148              		.global	THROTTLE_MAP
 1149              		.global	charge
 1150              		.global	voltage
 1151              		.global	CURRENT
 1152              		.global	PACK_TEMP
 1153              		.global	THROTTLE_MULTIPLIER
 1154              		.global	SOC_LUT
 1155              		.comm	FRAME,30,4
 1156              		.section	.rodata
 1157              		.align	3
 1158              		.type	THROTTLE_MAP, %object
 1159              		.size	THROTTLE_MAP, 64
 1160              	THROTTLE_MAP:
 1161 0000 00000000 		.word	0
 1162 0004 00C05740 		.word	1079492608
 1163 0008 00000000 		.word	0
 1164 000c 00C05140 		.word	1079099392
 1165 0010 00000000 		.word	0
 1166 0014 00804D40 		.word	1078820864
 1167 0018 00000000 		.word	0
 1168 001c 00804740 		.word	1078427648
 1169 0020 00000000 		.word	0
 1170 0024 00804140 		.word	1078034432
 1171 0028 00000000 		.word	0
 1172 002c 00003740 		.word	1077346304
 1173 0030 00000000 		.word	0
 1174 0034 00002640 		.word	1076232192
 1175 0038 00000000 		.word	0
 1176 003c 00001440 		.word	1075052544
 1177              		.data
 1178              		.align	3
 1179              		.set	.LANCHOR1,. + 0
 1180              		.type	SOC_LUT, %object
 1181              		.size	SOC_LUT, 960
 1182              	SOC_LUT:
ARM GAS  C:\Users\willy\AppData\Local\Temp\ccAHgQbi.s 			page 36


 1183 0000 00000000 		.word	0
 1184 0004 05000000 		.word	5
 1185 0008 0D000000 		.word	13
 1186 000c 16000000 		.word	22
 1187 0010 1F000000 		.word	31
 1188 0014 27000000 		.word	39
 1189 0018 30000000 		.word	48
 1190 001c 39000000 		.word	57
 1191 0020 43000000 		.word	67
 1192 0024 4C000000 		.word	76
 1193 0028 56000000 		.word	86
 1194 002c 5A000000 		.word	90
 1195 0030 6A000000 		.word	106
 1196 0034 75000000 		.word	117
 1197 0038 7F000000 		.word	127
 1198 003c 8A000000 		.word	138
 1199 0040 96000000 		.word	150
 1200 0044 A2000000 		.word	162
 1201 0048 AE000000 		.word	174
 1202 004c BA000000 		.word	186
 1203 0050 C7000000 		.word	199
 1204 0054 D4000000 		.word	212
 1205 0058 E2000000 		.word	226
 1206 005c F1000000 		.word	241
 1207 0060 00010000 		.word	256
 1208 0064 0F010000 		.word	271
 1209 0068 20010000 		.word	288
 1210 006c CD000000 		.word	205
 1211 0070 44010000 		.word	324
 1212 0074 59010000 		.word	345
 1213 0078 6C010000 		.word	364
 1214 007c 82010000 		.word	386
 1215 0080 9A010000 		.word	410
 1216 0084 B4010000 		.word	436
 1217 0088 D1010000 		.word	465
 1218 008c F1010000 		.word	497
 1219 0090 16020000 		.word	534
 1220 0094 41020000 		.word	577
 1221 0098 75020000 		.word	629
 1222 009c B7020000 		.word	695
 1223 00a0 0C030000 		.word	780
 1224 00a4 71030000 		.word	881
 1225 00a8 CC030000 		.word	972
 1226 00ac 14040000 		.word	1044
 1227 00b0 4F040000 		.word	1103
 1228 00b4 85040000 		.word	1157
 1229 00b8 B6040000 		.word	1206
 1230 00bc E5040000 		.word	1253
 1231 00c0 13050000 		.word	1299
 1232 00c4 40050000 		.word	1344
 1233 00c8 6D050000 		.word	1389
 1234 00cc 9A050000 		.word	1434
 1235 00d0 C7050000 		.word	1479
 1236 00d4 F7050000 		.word	1527
 1237 00d8 28060000 		.word	1576
 1238 00dc 5C060000 		.word	1628
 1239 00e0 92060000 		.word	1682
ARM GAS  C:\Users\willy\AppData\Local\Temp\ccAHgQbi.s 			page 37


 1240 00e4 CA060000 		.word	1738
 1241 00e8 06070000 		.word	1798
 1242 00ec 43070000 		.word	1859
 1243 00f0 84070000 		.word	1924
 1244 00f4 C8070000 		.word	1992
 1245 00f8 0E080000 		.word	2062
 1246 00fc 56080000 		.word	2134
 1247 0100 A0080000 		.word	2208
 1248 0104 E9080000 		.word	2281
 1249 0108 78090000 		.word	2424
 1250 010c BC090000 		.word	2492
 1251 0110 FD090000 		.word	2557
 1252 0114 3C0A0000 		.word	2620
 1253 0118 790A0000 		.word	2681
 1254 011c B70A0000 		.word	2743
 1255 0120 F40A0000 		.word	2804
 1256 0124 340B0000 		.word	2868
 1257 0128 570B0000 		.word	2903
 1258 012c BB0B0000 		.word	3003
 1259 0130 060C0000 		.word	3078
 1260 0134 590C0000 		.word	3161
 1261 0138 B50C0000 		.word	3253
 1262 013c 1A0D0000 		.word	3354
 1263 0140 8B0D0000 		.word	3467
 1264 0144 050E0000 		.word	3589
 1265 0148 880E0000 		.word	3720
 1266 014c 0B0F0000 		.word	3851
 1267 0150 880F0000 		.word	3976
 1268 0154 FC0F0000 		.word	4092
 1269 0158 68100000 		.word	4200
 1270 015c CF100000 		.word	4303
 1271 0160 34110000 		.word	4404
 1272 0164 98110000 		.word	4504
 1273 0168 FB110000 		.word	4603
 1274 016c 5C120000 		.word	4700
 1275 0170 B8120000 		.word	4792
 1276 0174 0E130000 		.word	4878
 1277 0178 5E130000 		.word	4958
 1278 017c A8130000 		.word	5032
 1279 0180 ED130000 		.word	5101
 1280 0184 2E140000 		.word	5166
 1281 0188 6C140000 		.word	5228
 1282 018c A9140000 		.word	5289
 1283 0190 E3140000 		.word	5347
 1284 0194 1D150000 		.word	5405
 1285 0198 56150000 		.word	5462
 1286 019c 8E150000 		.word	5518
 1287 01a0 C5150000 		.word	5573
 1288 01a4 FC150000 		.word	5628
 1289 01a8 30160000 		.word	5680
 1290 01ac 63160000 		.word	5731
 1291 01b0 94160000 		.word	5780
 1292 01b4 C2160000 		.word	5826
 1293 01b8 ED160000 		.word	5869
 1294 01bc 17170000 		.word	5911
 1295 01c0 3F170000 		.word	5951
 1296 01c4 64170000 		.word	5988
ARM GAS  C:\Users\willy\AppData\Local\Temp\ccAHgQbi.s 			page 38


 1297 01c8 88170000 		.word	6024
 1298 01cc AB170000 		.word	6059
 1299 01d0 CC170000 		.word	6092
 1300 01d4 EC170000 		.word	6124
 1301 01d8 0C180000 		.word	6156
 1302 01dc 2B180000 		.word	6187
 1303 01e0 49180000 		.word	6217
 1304 01e4 67180000 		.word	6247
 1305 01e8 86180000 		.word	6278
 1306 01ec A4180000 		.word	6308
 1307 01f0 C1180000 		.word	6337
 1308 01f4 E0180000 		.word	6368
 1309 01f8 FE180000 		.word	6398
 1310 01fc 1C190000 		.word	6428
 1311 0200 3B190000 		.word	6459
 1312 0204 5B190000 		.word	6491
 1313 0208 7B190000 		.word	6523
 1314 020c 9C190000 		.word	6556
 1315 0210 BE190000 		.word	6590
 1316 0214 E1190000 		.word	6625
 1317 0218 041A0000 		.word	6660
 1318 021c 281A0000 		.word	6696
 1319 0220 4D1A0000 		.word	6733
 1320 0224 721A0000 		.word	6770
 1321 0228 981A0000 		.word	6808
 1322 022c BE1A0000 		.word	6846
 1323 0230 E41A0000 		.word	6884
 1324 0234 0B1B0000 		.word	6923
 1325 0238 311B0000 		.word	6961
 1326 023c 581B0000 		.word	7000
 1327 0240 7F1B0000 		.word	7039
 1328 0244 A51B0000 		.word	7077
 1329 0248 CB1B0000 		.word	7115
 1330 024c F11B0000 		.word	7153
 1331 0250 171C0000 		.word	7191
 1332 0254 3C1C0000 		.word	7228
 1333 0258 621C0000 		.word	7266
 1334 025c 871C0000 		.word	7303
 1335 0260 AC1C0000 		.word	7340
 1336 0264 D01C0000 		.word	7376
 1337 0268 F51C0000 		.word	7413
 1338 026c 191D0000 		.word	7449
 1339 0270 3C1D0000 		.word	7484
 1340 0274 601D0000 		.word	7520
 1341 0278 831D0000 		.word	7555
 1342 027c A61D0000 		.word	7590
 1343 0280 C91D0000 		.word	7625
 1344 0284 EB1D0000 		.word	7659
 1345 0288 0E1E0000 		.word	7694
 1346 028c 301E0000 		.word	7728
 1347 0290 521E0000 		.word	7762
 1348 0294 741E0000 		.word	7796
 1349 0298 961E0000 		.word	7830
 1350 029c B81E0000 		.word	7864
 1351 02a0 DA1E0000 		.word	7898
 1352 02a4 FC1E0000 		.word	7932
 1353 02a8 1E1F0000 		.word	7966
ARM GAS  C:\Users\willy\AppData\Local\Temp\ccAHgQbi.s 			page 39


 1354 02ac 401F0000 		.word	8000
 1355 02b0 621F0000 		.word	8034
 1356 02b4 841F0000 		.word	8068
 1357 02b8 A61F0000 		.word	8102
 1358 02bc C81F0000 		.word	8136
 1359 02c0 EA1F0000 		.word	8170
 1360 02c4 0C200000 		.word	8204
 1361 02c8 2E200000 		.word	8238
 1362 02cc 50200000 		.word	8272
 1363 02d0 72200000 		.word	8306
 1364 02d4 94200000 		.word	8340
 1365 02d8 B5200000 		.word	8373
 1366 02dc D6200000 		.word	8406
 1367 02e0 F8200000 		.word	8440
 1368 02e4 18210000 		.word	8472
 1369 02e8 39210000 		.word	8505
 1370 02ec 5A210000 		.word	8538
 1371 02f0 7A210000 		.word	8570
 1372 02f4 9A210000 		.word	8602
 1373 02f8 B8210000 		.word	8632
 1374 02fc DA210000 		.word	8666
 1375 0300 F9210000 		.word	8697
 1376 0304 19220000 		.word	8729
 1377 0308 38220000 		.word	8760
 1378 030c 57220000 		.word	8791
 1379 0310 76220000 		.word	8822
 1380 0314 95220000 		.word	8853
 1381 0318 B4220000 		.word	8884
 1382 031c D3220000 		.word	8915
 1383 0320 F1220000 		.word	8945
 1384 0324 10230000 		.word	8976
 1385 0328 2E230000 		.word	9006
 1386 032c 4C230000 		.word	9036
 1387 0330 6B230000 		.word	9067
 1388 0334 89230000 		.word	9097
 1389 0338 A7230000 		.word	9127
 1390 033c C5230000 		.word	9157
 1391 0340 E2230000 		.word	9186
 1392 0344 00240000 		.word	9216
 1393 0348 1D240000 		.word	9245
 1394 034c 3B240000 		.word	9275
 1395 0350 58240000 		.word	9304
 1396 0354 75240000 		.word	9333
 1397 0358 92240000 		.word	9362
 1398 035c AE240000 		.word	9390
 1399 0360 CB240000 		.word	9419
 1400 0364 E7240000 		.word	9447
 1401 0368 03250000 		.word	9475
 1402 036c 1F250000 		.word	9503
 1403 0370 3B250000 		.word	9531
 1404 0374 57250000 		.word	9559
 1405 0378 72250000 		.word	9586
 1406 037c 8D250000 		.word	9613
 1407 0380 A8250000 		.word	9640
 1408 0384 AF250000 		.word	9647
 1409 0388 DD250000 		.word	9693
 1410 038c F8250000 		.word	9720
ARM GAS  C:\Users\willy\AppData\Local\Temp\ccAHgQbi.s 			page 40


 1411 0390 12260000 		.word	9746
 1412 0394 2C260000 		.word	9772
 1413 0398 45260000 		.word	9797
 1414 039c 5F260000 		.word	9823
 1415 03a0 78260000 		.word	9848
 1416 03a4 91260000 		.word	9873
 1417 03a8 AA260000 		.word	9898
 1418 03ac C3260000 		.word	9923
 1419 03b0 DB260000 		.word	9947
 1420 03b4 F3260000 		.word	9971
 1421 03b8 0B270000 		.word	9995
 1422 03bc A0860100 		.word	100000
 1423              		.type	THROTTLE_MULTIPLIER, %object
 1424              		.size	THROTTLE_MULTIPLIER, 8
 1425              	THROTTLE_MULTIPLIER:
 1426 03c0 00000000 		.word	0
 1427 03c4 0000F03F 		.word	1072693248
 1428              		.type	previous_state, %object
 1429              		.size	previous_state, 4
 1430              	previous_state:
 1431 03c8 FFFFFFFF 		.word	-1
 1432              		.section	.rodata.str1.4,"aMS",%progbits,1
 1433              		.align	2
 1434              	.LC0:
 1435 0000 53544152 		.ascii	"START\000"
 1435      5400
 1436 0006 0000     		.space	2
 1437              	.LC1:
 1438 0008 4C5600   		.ascii	"LV\000"
 1439 000b 00       		.space	1
 1440              	.LC2:
 1441 000c 50524348 		.ascii	"PRCHGE\000"
 1441      474500
 1442 0013 00       		.space	1
 1443              	.LC3:
 1444 0014 485600   		.ascii	"HV\000"
 1445 0017 00       		.space	1
 1446              	.LC4:
 1447 0018 4641554C 		.ascii	"FAULT\000"
 1447      5400
 1448 001e 0000     		.space	2
 1449              	.LC5:
 1450 0020 4552524F 		.ascii	"ERROR:\000"
 1450      523A00
 1451              		.bss
 1452              		.align	2
 1453              		.set	.LANCHOR0,. + 0
 1454              		.type	pedalOK, %object
 1455              		.size	pedalOK, 4
 1456              	pedalOK:
 1457 0000 00000000 		.space	4
 1458              		.type	voltage, %object
 1459              		.size	voltage, 4
 1460              	voltage:
 1461 0004 00000000 		.space	4
 1462              		.type	charge, %object
 1463              		.size	charge, 1
ARM GAS  C:\Users\willy\AppData\Local\Temp\ccAHgQbi.s 			page 41


 1464              	charge:
 1465 0008 00       		.space	1
 1466 0009 000000   		.space	3
 1467              		.type	CURRENT, %object
 1468              		.size	CURRENT, 4
 1469              	CURRENT:
 1470 000c 00000000 		.space	4
 1471              		.type	PACK_TEMP, %object
 1472              		.size	PACK_TEMP, 1
 1473              	PACK_TEMP:
 1474 0010 00       		.space	1
 1475              		.type	DriveSwitch, %object
 1476              		.size	DriveSwitch, 1
 1477              	DriveSwitch:
 1478 0011 00       		.space	1
 1479              		.type	HVSwitch, %object
 1480              		.size	HVSwitch, 1
 1481              	HVSwitch:
 1482 0012 00       		.space	1
 1483 0013 00       		.space	1
 1484              		.type	curr_voltage, %object
 1485              		.size	curr_voltage, 2
 1486              	curr_voltage:
 1487 0014 0000     		.space	2
 1488              		.text
 1489              	.Letext0:
 1490              		.file 3 "c:\\program files (x86)\\cypress\\psoc creator\\4.2\\psoc creator\\import\\gnu\\arm\\5.4.
 1491              		.file 4 "c:\\program files (x86)\\cypress\\psoc creator\\4.2\\psoc creator\\import\\gnu\\arm\\5.4.
 1492              		.file 5 "Generated_Source\\PSoC5/cytypes.h"
 1493              		.file 6 "Generated_Source\\PSoC5/CAN.h"
 1494              		.file 7 "glcdfont.h"
 1495              		.file 8 "Generated_Source\\PSoC5/core_cm3.h"
 1496              		.file 9 "T6963C.h"
 1497              		.file 10 "data.h"
 1498              		.file 11 "Generated_Source\\PSoC5/WDT_Reset.h"
 1499              		.file 12 "Generated_Source\\PSoC5/CyLib.h"
 1500              		.file 13 "Generated_Source\\PSoC5/RGB1_1.h"
 1501              		.file 14 "Generated_Source\\PSoC5/RGB2_1.h"
 1502              		.file 15 "Generated_Source\\PSoC5/RGB3_1.h"
 1503              		.file 16 "Generated_Source\\PSoC5/Node_Timer.h"
 1504              		.file 17 "Generated_Source\\PSoC5/isr_nodeok.h"
 1505              		.file 18 "can_manga.h"
 1506              		.file 19 "graphic.h"
 1507              		.file 20 "Generated_Source\\PSoC5/Buzzer.h"
 1508              		.file 21 "Generated_Source\\PSoC5/Drive.h"
 1509              		.file 22 "Generated_Source\\PSoC5/HV.h"
 1510              		.file 23 "Generated_Source\\PSoC5/EEPROM_1.h"
 1511              		.file 24 "Generated_Source\\PSoC5/WDT_Timer.h"
 1512              		.file 25 "Generated_Source\\PSoC5/isr_wdt.h"
 1513              		.file 26 "Generated_Source\\PSoC5/LED.h"